(imatplotlib.font_manager
FontManager
p1
(dp2
S'afm_lookup_cache'
p3
(dp4
sS'ttflist'
p5
(lp6
ccopy_reg
_reconstructor
p7
(cmatplotlib.font_manager
FontEntry
p8
c__builtin__
object
p9
NtRp10
(dp11
S'style'
p12
S'normal'
p13
sS'name'
p14
S'cmb10'
p15
sS'weight'
p16
I400
sS'stretch'
p17
g13
sS'variant'
p18
g13
sS'fname'
p19
S'/usr/share/matplotlib/mpl-data/fonts/ttf/cmb10.ttf'
p20
sS'size'
p21
S'scalable'
p22
sbag7
(g8
g9
NtRp23
(dp24
g12
g13
sg14
S'cmex10'
p25
sg16
I400
sg17
g13
sg18
g13
sg19
S'/usr/share/matplotlib/mpl-data/fonts/ttf/cmex10.ttf'
p26
sg21
g22
sbag7
(g8
g9
NtRp27
(dp28
g12
S'italic'
p29
sg14
S'STIXNonUnicode'
p30
sg16
I400
sg17
g13
sg18
g13
sg19
S'/usr/share/matplotlib/mpl-data/fonts/ttf/STIXNonUniIta.ttf'
p31
sg21
g22
sbag7
(g8
g9
NtRp32
(dp33
g12
g13
sg14
S'STIXNonUnicode'
p34
sg16
I400
sg17
g13
sg18
g13
sg19
S'/usr/share/matplotlib/mpl-data/fonts/ttf/STIXNonUni.ttf'
p35
sg21
g22
sbag7
(g8
g9
NtRp36
(dp37
g12
g13
sg14
S'STIXSize5'
p38
sg16
I400
sg17
g13
sg18
g13
sg19
S'/usr/share/matplotlib/mpl-data/fonts/ttf/STIXSiz5Sym.ttf'
p39
sg21
g22
sbag7
(g8
g9
NtRp40
(dp41
g12
g13
sg14
S'cmtt10'
p42
sg16
I400
sg17
g13
sg18
g13
sg19
S'/usr/share/matplotlib/mpl-data/fonts/ttf/cmtt10.ttf'
p43
sg21
g22
sbag7
(g8
g9
NtRp44
(dp45
g12
g13
sg14
S'STIXGeneral'
p46
sg16
I400
sg17
g13
sg18
g13
sg19
S'/usr/share/matplotlib/mpl-data/fonts/ttf/STIXGeneral.ttf'
p47
sg21
g22
sbag7
(g8
g9
NtRp48
(dp49
g12
g29
sg14
S'STIXNonUnicode'
p50
sg16
I700
sg17
g13
sg18
g13
sg19
S'/usr/share/matplotlib/mpl-data/fonts/ttf/STIXNonUniBolIta.ttf'
p51
sg21
g22
sbag7
(g8
g9
NtRp52
(dp53
g12
g13
sg14
S'STIXSize3'
p54
sg16
I700
sg17
g13
sg18
g13
sg19
S'/usr/share/matplotlib/mpl-data/fonts/ttf/STIXSiz3SymBol.ttf'
p55
sg21
g22
sbag7
(g8
g9
NtRp56
(dp57
g12
g13
sg14
S'STIXSize3'
p58
sg16
I400
sg17
g13
sg18
g13
sg19
S'/usr/share/matplotlib/mpl-data/fonts/ttf/STIXSiz3Sym.ttf'
p59
sg21
g22
sbag7
(g8
g9
NtRp60
(dp61
g12
g13
sg14
S'STIXSize2'
p62
sg16
I400
sg17
g13
sg18
g13
sg19
S'/usr/share/matplotlib/mpl-data/fonts/ttf/STIXSiz2Sym.ttf'
p63
sg21
g22
sbag7
(g8
g9
NtRp64
(dp65
g12
g13
sg14
S'STIXGeneral'
p66
sg16
I700
sg17
g13
sg18
g13
sg19
S'/usr/share/matplotlib/mpl-data/fonts/ttf/STIXGeneralBol.ttf'
p67
sg21
g22
sbag7
(g8
g9
NtRp68
(dp69
g12
g13
sg14
S'STIXSize4'
p70
sg16
I700
sg17
g13
sg18
g13
sg19
S'/usr/share/matplotlib/mpl-data/fonts/ttf/STIXSiz4SymBol.ttf'
p71
sg21
g22
sbag7
(g8
g9
NtRp72
(dp73
g12
g13
sg14
S'STIXSize2'
p74
sg16
I700
sg17
g13
sg18
g13
sg19
S'/usr/share/matplotlib/mpl-data/fonts/ttf/STIXSiz2SymBol.ttf'
p75
sg21
g22
sbag7
(g8
g9
NtRp76
(dp77
g12
g13
sg14
S'cmsy10'
p78
sg16
I400
sg17
g13
sg18
g13
sg19
S'/usr/share/matplotlib/mpl-data/fonts/ttf/cmsy10.ttf'
p79
sg21
g22
sbag7
(g8
g9
NtRp80
(dp81
g12
g13
sg14
S'cmss10'
p82
sg16
I400
sg17
g13
sg18
g13
sg19
S'/usr/share/matplotlib/mpl-data/fonts/ttf/cmss10.ttf'
p83
sg21
g22
sbag7
(g8
g9
NtRp84
(dp85
g12
g13
sg14
S'STIXSize1'
p86
sg16
I700
sg17
g13
sg18
g13
sg19
S'/usr/share/matplotlib/mpl-data/fonts/ttf/STIXSiz1SymBol.ttf'
p87
sg21
g22
sbag7
(g8
g9
NtRp88
(dp89
g12
g29
sg14
S'STIXGeneral'
p90
sg16
I400
sg17
g13
sg18
g13
sg19
S'/usr/share/matplotlib/mpl-data/fonts/ttf/STIXGeneralItalic.ttf'
p91
sg21
g22
sbag7
(g8
g9
NtRp92
(dp93
g12
g13
sg14
S'cmr10'
p94
sg16
I400
sg17
g13
sg18
g13
sg19
S'/usr/share/matplotlib/mpl-data/fonts/ttf/cmr10.ttf'
p95
sg21
g22
sbag7
(g8
g9
NtRp96
(dp97
g12
g13
sg14
S'STIXSize4'
p98
sg16
I400
sg17
g13
sg18
g13
sg19
S'/usr/share/matplotlib/mpl-data/fonts/ttf/STIXSiz4Sym.ttf'
p99
sg21
g22
sbag7
(g8
g9
NtRp100
(dp101
g12
g13
sg14
S'STIXSize1'
p102
sg16
I400
sg17
g13
sg18
g13
sg19
S'/usr/share/matplotlib/mpl-data/fonts/ttf/STIXSiz1Sym.ttf'
p103
sg21
g22
sbag7
(g8
g9
NtRp104
(dp105
g12
g13
sg14
S'cmmi10'
p106
sg16
I400
sg17
g13
sg18
g13
sg19
S'/usr/share/matplotlib/mpl-data/fonts/ttf/cmmi10.ttf'
p107
sg21
g22
sbag7
(g8
g9
NtRp108
(dp109
g12
g13
sg14
S'STIXNonUnicode'
p110
sg16
I700
sg17
g13
sg18
g13
sg19
S'/usr/share/matplotlib/mpl-data/fonts/ttf/STIXNonUniBol.ttf'
p111
sg21
g22
sbag7
(g8
g9
NtRp112
(dp113
g12
g29
sg14
S'STIXGeneral'
p114
sg16
I700
sg17
g13
sg18
g13
sg19
S'/usr/share/matplotlib/mpl-data/fonts/ttf/STIXGeneralBolIta.ttf'
p115
sg21
g22
sbag7
(g8
g9
NtRp116
(dp117
g12
g13
sg14
S'Liberation Sans Narrow'
p118
sg16
I400
sg17
S'condensed'
p119
sg18
g13
sg19
S'/usr/share/fonts/truetype/ttf-liberation/LiberationSansNarrow-Regular.ttf'
p120
sg21
g22
sbag7
(g8
g9
NtRp121
(dp122
g12
g29
sg14
S'jsMath-cmti10'
p123
sg16
I400
sg17
g13
sg18
g13
sg19
S'/usr/share/fonts/truetype/jsmath/jsMath-cmti10.ttf'
p124
sg21
g22
sbag7
(g8
g9
NtRp125
(dp126
g12
S'oblique'
p127
sg14
S'DejaVu Sans'
p128
sg16
I400
sg17
g13
sg18
g13
sg19
S'/usr/share/fonts/truetype/ttf-dejavu/DejaVuSans-Oblique.ttf'
p129
sg21
g22
sbag7
(g8
g9
NtRp130
(dp131
g12
g13
sg14
S'GFS Solomos'
p132
sg16
I400
sg17
g13
sg18
g13
sg19
S'/usr/share/fonts/truetype/ttf-gfs-solomos/GFSSolomos.otf'
p133
sg21
g22
sbag7
(g8
g9
NtRp134
(dp135
g12
g13
sg14
S'Liberation Sans'
p136
sg16
I700
sg17
g13
sg18
g13
sg19
S'/usr/share/fonts/truetype/ttf-liberation/LiberationSans-Bold.ttf'
p137
sg21
g22
sbag7
(g8
g9
NtRp138
(dp139
g12
g29
sg14
S'Gentium Book Basic'
p140
sg16
I400
sg17
g13
sg18
g13
sg19
S'/usr/share/fonts/truetype/ttf-sil-gentium-basic/GenBkBasI.ttf'
p141
sg21
g22
sbag7
(g8
g9
NtRp142
(dp143
g12
g29
sg14
S'Liberation Sans'
p144
sg16
I400
sg17
g13
sg18
g13
sg19
S'/usr/share/fonts/truetype/ttf-liberation/LiberationSans-Italic.ttf'
p145
sg21
g22
sbag7
(g8
g9
NtRp146
(dp147
g12
g13
sg14
S'jsMath-eufb10'
p148
sg16
I400
sg17
g13
sg18
g13
sg19
S'/usr/share/fonts/truetype/jsmath/jsMath-eufb10.ttf'
p149
sg21
g22
sbag7
(g8
g9
NtRp150
(dp151
g12
g13
sg14
S'Gentium Book Basic'
p152
sg16
I400
sg17
g13
sg18
g13
sg19
S'/usr/share/fonts/truetype/ttf-sil-gentium-basic/GenBkBasR.ttf'
p153
sg21
g22
sbag7
(g8
g9
NtRp154
(dp155
g12
g127
sg14
S'DejaVu Sans Mono'
p156
sg16
I400
sg17
g13
sg18
g13
sg19
S'/usr/share/fonts/truetype/ttf-dejavu/DejaVuSansMono-Oblique.ttf'
p157
sg21
g22
sbag7
(g8
g9
NtRp158
(dp159
g12
g29
sg14
S'rsfs10'
p160
sg16
I400
sg17
g13
sg18
g13
sg19
S'/usr/share/fonts/truetype/ttf-lyx/rsfs10.ttf'
p161
sg21
g22
sbag7
(g8
g9
NtRp162
(dp163
g12
g13
sg14
S'DejaVu Sans'
p164
sg16
I400
sg17
g119
sg18
g13
sg19
S'/usr/share/fonts/truetype/ttf-dejavu/DejaVuSansCondensed.ttf'
p165
sg21
g22
sbag7
(g8
g9
NtRp166
(dp167
g12
g13
sg14
S'Liberation Mono'
p168
sg16
I700
sg17
g13
sg18
g13
sg19
S'/usr/share/fonts/truetype/ttf-liberation/LiberationMono-Bold.ttf'
p169
sg21
g22
sbag7
(g8
g9
NtRp170
(dp171
g12
g13
sg14
S'msbm10'
p172
sg16
I400
sg17
g13
sg18
g13
sg19
S'/usr/share/fonts/truetype/ttf-lyx/msbm10.ttf'
p173
sg21
g22
sbag7
(g8
g9
NtRp174
(dp175
g12
g29
sg14
S'DejaVu Serif'
p176
sg16
I700
sg17
g13
sg18
g13
sg19
S'/usr/share/fonts/truetype/ttf-dejavu/DejaVuSerif-BoldItalic.ttf'
p177
sg21
g22
sbag7
(g8
g9
NtRp178
(dp179
g12
g13
sg14
S'DejaVu Sans Mono'
p180
sg16
I400
sg17
g13
sg18
g13
sg19
S'/usr/share/fonts/truetype/ttf-dejavu/DejaVuSansMono.ttf'
p181
sg21
g22
sbag7
(g8
g9
NtRp182
(dp183
g12
g13
sg14
S'Lucida Bright'
p184
sg16
I400
sg17
g13
sg18
g13
sg19
S'/usr/share/fonts/truetype/ttf-lucida/LucidaBrightRegular.ttf'
p185
sg21
g22
sbag7
(g8
g9
NtRp186
(dp187
g12
g13
sg14
S'Sans Condensed Uralic'
p188
sg16
I700
sg17
g119
sg18
g13
sg19
S'/usr/share/fonts/truetype/uralic/sanscub_.ttf'
p189
sg21
g22
sbag7
(g8
g9
NtRp190
(dp191
g12
g13
sg14
S'jsMath-lasy10'
p192
sg16
I400
sg17
g13
sg18
g13
sg19
S'/usr/share/fonts/truetype/jsmath/jsMath-lasy10.ttf'
p193
sg21
g22
sbag7
(g8
g9
NtRp194
(dp195
g12
g13
sg14
S'Palladio Uralic'
p196
sg16
I400
sg17
g13
sg18
g13
sg19
S'/usr/share/fonts/truetype/uralic/pallu___.ttf'
p197
sg21
g22
sbag7
(g8
g9
NtRp198
(dp199
g12
g13
sg14
S'FreeSerif'
p200
sg16
I700
sg17
g13
sg18
g13
sg19
S'/usr/share/fonts/truetype/freefont/FreeSerifBold.ttf'
p201
sg21
g22
sbag7
(g8
g9
NtRp202
(dp203
g12
g127
sg14
S'FreeMono'
p204
sg16
I700
sg17
g13
sg18
g13
sg19
S'/usr/share/fonts/truetype/freefont/FreeMonoBoldOblique.ttf'
p205
sg21
g22
sbag7
(g8
g9
NtRp206
(dp207
g12
g29
sg14
S'Liberation Mono'
p208
sg16
I400
sg17
g13
sg18
g13
sg19
S'/usr/share/fonts/truetype/ttf-liberation/LiberationMono-Italic.ttf'
p209
sg21
g22
sbag7
(g8
g9
NtRp210
(dp211
g12
g13
sg14
S'DejaVu Serif'
p212
sg16
I700
sg17
g13
sg18
g13
sg19
S'/usr/share/fonts/truetype/ttf-dejavu/DejaVuSerif-Bold.ttf'
p213
sg21
g22
sbag7
(g8
g9
NtRp214
(dp215
g12
g13
sg14
S'GFS Neohellenic'
p216
sg16
I400
sg17
g13
sg18
g13
sg19
S'/usr/share/fonts/truetype/ttf-gfs-neohellenic/GFSNeohellenic.otf'
p217
sg21
g22
sbag7
(g8
g9
NtRp218
(dp219
g12
g29
sg14
S'GFS Didot'
p220
sg16
I700
sg17
g13
sg18
g13
sg19
S'/usr/share/fonts/truetype/ttf-gfs-artemisia/GFSArtemisiaBoldIt.otf'
p221
sg21
g22
sbag7
(g8
g9
NtRp222
(dp223
g12
g29
sg14
S'DejaVu Serif'
p224
sg16
I400
sg17
g13
sg18
g13
sg19
S'/usr/share/fonts/truetype/ttf-dejavu/DejaVuSerif-Italic.ttf'
p225
sg21
g22
sbag7
(g8
g9
NtRp226
(dp227
g12
g29
sg14
S'Gentium Basic'
p228
sg16
I400
sg17
g13
sg18
g13
sg19
S'/usr/share/fonts/truetype/ttf-sil-gentium-basic/GenBasI.ttf'
p229
sg21
g22
sbag7
(g8
g9
NtRp230
(dp231
g12
g127
sg14
S'FreeSans'
p232
sg16
I400
sg17
g13
sg18
g13
sg19
S'/usr/share/fonts/truetype/freefont/FreeSansOblique.ttf'
p233
sg21
g22
sbag7
(g8
g9
NtRp234
(dp235
g12
g29
sg14
S'Roman Uralic'
p236
sg16
I500
sg17
g13
sg18
g13
sg19
S'/usr/share/fonts/truetype/uralic/romaui__.ttf'
p237
sg21
g22
sbag7
(g8
g9
NtRp238
(dp239
g12
g13
sg14
S'Bookman Uralic'
p240
sg16
I700
sg17
g13
sg18
g13
sg19
S'/usr/share/fonts/truetype/uralic/bookub__.ttf'
p241
sg21
g22
sbag7
(g8
g9
NtRp242
(dp243
g12
g13
sg14
S'jsMath-cmss10'
p244
sg16
I400
sg17
g13
sg18
g13
sg19
S'/usr/share/fonts/truetype/jsmath/jsMath-cmss10.ttf'
p245
sg21
g22
sbag7
(g8
g9
NtRp246
(dp247
g12
g13
sg14
S'jsMath-cmbx10'
p248
sg16
I700
sg17
g13
sg18
g13
sg19
S'/usr/share/fonts/truetype/jsmath/jsMath-cmbx10.ttf'
p249
sg21
g22
sbag7
(g8
g9
NtRp250
(dp251
g12
g29
sg14
S'Lucida Bright'
p252
sg16
I700
sg17
g13
sg18
g13
sg19
S'/usr/share/fonts/truetype/ttf-lucida/LucidaBrightDemiItalic.ttf'
p253
sg21
g22
sbag7
(g8
g9
NtRp254
(dp255
g12
g13
sg14
S'eufm10'
p256
sg16
I400
sg17
g13
sg18
g13
sg19
S'/usr/share/fonts/truetype/ttf-lyx/eufm10.ttf'
p257
sg21
g22
sbag7
(g8
g9
NtRp258
(dp259
g12
g127
sg14
S'DejaVu Sans'
p260
sg16
I700
sg17
g13
sg18
g13
sg19
S'/usr/share/fonts/truetype/ttf-dejavu/DejaVuSans-BoldOblique.ttf'
p261
sg21
g22
sbag7
(g8
g9
NtRp262
(dp263
g12
g29
sg14
S'Liberation Sans Narrow'
p264
sg16
I400
sg17
g119
sg18
g13
sg19
S'/usr/share/fonts/truetype/ttf-liberation/LiberationSansNarrow-Italic.ttf'
p265
sg21
g22
sbag7
(g8
g9
NtRp266
(dp267
g12
g13
sg14
S'wasy10'
p268
sg16
I400
sg17
g13
sg18
g13
sg19
S'/usr/share/fonts/truetype/ttf-lyx/wasy10.ttf'
p269
sg21
g22
sbag7
(g8
g9
NtRp270
(dp271
g12
g127
sg14
S'DejaVu Sans'
p272
sg16
I700
sg17
g119
sg18
g13
sg19
S'/usr/share/fonts/truetype/ttf-dejavu/DejaVuSansCondensed-BoldOblique.ttf'
p273
sg21
g22
sbag7
(g8
g9
NtRp274
(dp275
g12
g13
sg14
S'DejaVu Sans'
p276
sg16
I700
sg17
g119
sg18
g13
sg19
S'/usr/share/fonts/truetype/ttf-dejavu/DejaVuSansCondensed-Bold.ttf'
p277
sg21
g22
sbag7
(g8
g9
NtRp278
(dp279
g12
g13
sg14
S'GFS Gazis'
p280
sg16
I400
sg17
g13
sg18
g13
sg19
S'/usr/share/fonts/truetype/ttf-gfs-gazis/GFSGazis.otf'
p281
sg21
g22
sbag7
(g8
g9
NtRp282
(dp283
g12
g29
sg14
S'Sans Uralic'
p284
sg16
I400
sg17
g13
sg18
g13
sg19
S'/usr/share/fonts/truetype/uralic/sansui__.ttf'
p285
sg21
g22
sbag7
(g8
g9
NtRp286
(dp287
g12
g13
sg14
S'jsMath-rsfs10'
p288
sg16
I400
sg17
g13
sg18
g13
sg19
S'/usr/share/fonts/truetype/jsmath/jsMath-rsfs10.ttf'
p289
sg21
g22
sbag7
(g8
g9
NtRp290
(dp291
g12
g13
sg14
S'Palladio Uralic'
p292
sg16
I700
sg17
g13
sg18
g13
sg19
S'/usr/share/fonts/truetype/uralic/pallub__.ttf'
p293
sg21
g22
sbag7
(g8
g9
NtRp294
(dp295
g12
g13
sg14
S'Sans Uralic'
p296
sg16
I400
sg17
g13
sg18
g13
sg19
S'/usr/share/fonts/truetype/uralic/sansu___.ttf'
p297
sg21
g22
sbag7
(g8
g9
NtRp298
(dp299
g12
g127
sg14
S'Lucida Sans'
p300
sg16
I400
sg17
g13
sg18
g13
sg19
S'/usr/share/fonts/truetype/ttf-lucida/LucidaSansOblique.ttf'
p301
sg21
g22
sbag7
(g8
g9
NtRp302
(dp303
g12
g13
sg14
S'Bookman Uralic'
p304
sg16
I400
sg17
g13
sg18
g13
sg19
S'/usr/share/fonts/truetype/uralic/booku___.ttf'
p305
sg21
g22
sbag7
(g8
g9
NtRp306
(dp307
g12
g13
sg14
S'DejaVu Sans Mono'
p308
sg16
I700
sg17
g13
sg18
g13
sg19
S'/usr/share/fonts/truetype/ttf-dejavu/DejaVuSansMono-Bold.ttf'
p309
sg21
g22
sbag7
(g8
g9
NtRp310
(dp311
g12
g13
sg14
S'GFS Artemisia'
p312
sg16
I400
sg17
g13
sg18
g13
sg19
S'/usr/share/fonts/truetype/ttf-gfs-artemisia/GFSArtemisia.otf'
p313
sg21
g22
sbag7
(g8
g9
NtRp314
(dp315
g12
g13
sg14
S'jsMath-msam10'
p316
sg16
I400
sg17
g13
sg18
g13
sg19
S'/usr/share/fonts/truetype/jsmath/jsMath-msam10.ttf'
p317
sg21
g22
sbag7
(g8
g9
NtRp318
(dp319
g12
g127
sg14
S'DejaVu Sans'
p320
sg16
I400
sg17
g119
sg18
g13
sg19
S'/usr/share/fonts/truetype/ttf-dejavu/DejaVuSansCondensed-Oblique.ttf'
p321
sg21
g22
sbag7
(g8
g9
NtRp322
(dp323
g12
g13
sg14
S'Gentium'
p324
sg16
I400
sg17
g13
sg18
g13
sg19
S'/usr/share/fonts/truetype/ttf-sil-gentium/GenR102.ttf'
p325
sg21
g22
sbag7
(g8
g9
NtRp326
(dp327
g12
g13
sg14
S'DejaVu Serif'
p328
sg16
I700
sg17
g119
sg18
g13
sg19
S'/usr/share/fonts/truetype/ttf-dejavu/DejaVuSerifCondensed-Bold.ttf'
p329
sg21
g22
sbag7
(g8
g9
NtRp330
(dp331
g12
g29
sg14
S'Liberation Serif'
p332
sg16
I400
sg17
g13
sg18
g13
sg19
S'/usr/share/fonts/truetype/ttf-liberation/LiberationSerif-Italic.ttf'
p333
sg21
g22
sbag7
(g8
g9
NtRp334
(dp335
g12
g13
sg14
S'GFS Didot'
p336
sg16
I400
sg17
g13
sg18
g13
sg19
S'/usr/share/fonts/truetype/ttf-gfs-didot/GFSDidot.otf'
p337
sg21
g22
sbag7
(g8
g9
NtRp338
(dp339
g12
g13
sg14
S'Gentium Book Basic'
p340
sg16
I700
sg17
g13
sg18
g13
sg19
S'/usr/share/fonts/truetype/ttf-sil-gentium-basic/GenBkBasB.ttf'
p341
sg21
g22
sbag7
(g8
g9
NtRp342
(dp343
g12
g29
sg14
S'Liberation Sans Narrow'
p344
sg16
I700
sg17
g119
sg18
g13
sg19
S'/usr/share/fonts/truetype/ttf-liberation/LiberationSansNarrow-BoldItalic.ttf'
p345
sg21
g22
sbag7
(g8
g9
NtRp346
(dp347
g12
g29
sg14
S'Chancery Uralic'
p348
sg16
I400
sg17
g13
sg18
g13
sg19
S'/usr/share/fonts/truetype/uralic/chanui__.ttf'
p349
sg21
g22
sbag7
(g8
g9
NtRp350
(dp351
g12
g13
sg14
S'Liberation Serif'
p352
sg16
I700
sg17
g13
sg18
g13
sg19
S'/usr/share/fonts/truetype/ttf-liberation/LiberationSerif-Bold.ttf'
p353
sg21
g22
sbag7
(g8
g9
NtRp354
(dp355
g12
g29
sg14
S'Lucida Bright'
p356
sg16
I400
sg17
g13
sg18
g13
sg19
S'/usr/share/fonts/truetype/ttf-lucida/LucidaBrightItalic.ttf'
p357
sg21
g22
sbag7
(g8
g9
NtRp358
(dp359
g12
g29
sg14
S'GFS Neohellenic'
p360
sg16
I400
sg17
g13
sg18
g13
sg19
S'/usr/share/fonts/truetype/ttf-gfs-neohellenic/GFSNeohellenicIt.otf'
p361
sg21
g22
sbag7
(g8
g9
NtRp362
(dp363
g12
g29
sg14
S'Liberation Sans'
p364
sg16
I700
sg17
g13
sg18
g13
sg19
S'/usr/share/fonts/truetype/ttf-liberation/LiberationSans-BoldItalic.ttf'
p365
sg21
g22
sbag7
(g8
g9
NtRp366
(dp367
g12
g13
sg14
S'GentiumAlt'
p368
sg16
I400
sg17
g13
sg18
g13
sg19
S'/usr/share/fonts/truetype/ttf-sil-gentium/GenAR102.ttf'
p369
sg21
g22
sbag7
(g8
g9
NtRp370
(dp371
g12
g13
sg14
S'jsMath-eusm10'
p372
sg16
I400
sg17
g13
sg18
g13
sg19
S'/usr/share/fonts/truetype/jsmath/jsMath-eusm10.ttf'
p373
sg21
g22
sbag7
(g8
g9
NtRp374
(dp375
g12
g13
sg14
S'jsMath-eusb10'
p376
sg16
I400
sg17
g13
sg18
g13
sg19
S'/usr/share/fonts/truetype/jsmath/jsMath-eusb10.ttf'
p377
sg21
g22
sbag7
(g8
g9
NtRp378
(dp379
g12
g13
sg14
S'DejaVu Sans'
p380
sg16
I400
sg17
g13
sg18
g13
sg19
S'/usr/share/fonts/truetype/ttf-dejavu/DejaVuSans.ttf'
p381
sg21
g22
sbag7
(g8
g9
NtRp382
(dp383
g12
g13
sg14
S'jsMath-cmex10'
p384
sg16
I400
sg17
g13
sg18
g13
sg19
S'/usr/share/fonts/truetype/jsmath/jsMath-cmex10.ttf'
p385
sg21
g22
sbag7
(g8
g9
NtRp386
(dp387
g12
g13
sg14
S'FreeSans'
p388
sg16
I700
sg17
g13
sg18
g13
sg19
S'/usr/share/fonts/truetype/freefont/FreeSansBold.ttf'
p389
sg21
g22
sbag7
(g8
g9
NtRp390
(dp391
g12
g13
sg14
S'jsMath-bbold10'
p392
sg16
I700
sg17
g13
sg18
g13
sg19
S'/usr/share/fonts/truetype/jsmath/jsMath-bbold10.ttf'
p393
sg21
g22
sbag7
(g8
g9
NtRp394
(dp395
g12
g127
sg14
S'DejaVu Sans Mono'
p396
sg16
I700
sg17
g13
sg18
g13
sg19
S'/usr/share/fonts/truetype/ttf-dejavu/DejaVuSansMono-BoldOblique.ttf'
p397
sg21
g22
sbag7
(g8
g9
NtRp398
(dp399
g12
g13
sg14
S'GFS Neohellenic'
p400
sg16
I700
sg17
g13
sg18
g13
sg19
S'/usr/share/fonts/truetype/ttf-gfs-neohellenic/GFSNeohellenicBold.otf'
p401
sg21
g22
sbag7
(g8
g9
NtRp402
(dp403
g12
g13
sg14
S'FreeMono'
p404
sg16
I700
sg17
g13
sg18
g13
sg19
S'/usr/share/fonts/truetype/freefont/FreeMonoBold.ttf'
p405
sg21
g22
sbag7
(g8
g9
NtRp406
(dp407
g12
g13
sg14
S'DejaVu Sans'
p408
sg16
I700
sg17
g13
sg18
g13
sg19
S'/usr/share/fonts/truetype/ttf-dejavu/DejaVuSans-Bold.ttf'
p409
sg21
g22
sbag7
(g8
g9
NtRp410
(dp411
g12
g13
sg14
S'DejaVu Sans'
p412
sg16
I200
sg17
g13
sg18
g13
sg19
S'/usr/share/fonts/truetype/ttf-dejavu/DejaVuSans-ExtraLight.ttf'
p413
sg21
g22
sbag7
(g8
g9
NtRp414
(dp415
g12
g29
sg14
S'GFS Didot'
p416
sg16
I400
sg17
g13
sg18
g13
sg19
S'/usr/share/fonts/truetype/ttf-gfs-didot/GFSDidotItalic.otf'
p417
sg21
g22
sbag7
(g8
g9
NtRp418
(dp419
g12
g13
sg14
S'Sans Condensed Uralic'
p420
sg16
I400
sg17
g119
sg18
g13
sg19
S'/usr/share/fonts/truetype/uralic/sanscu__.ttf'
p421
sg21
g22
sbag7
(g8
g9
NtRp422
(dp423
g12
g13
sg14
S'jsMath-cmsy10'
p424
sg16
I400
sg17
g13
sg18
g13
sg19
S'/usr/share/fonts/truetype/jsmath/jsMath-cmsy10.ttf'
p425
sg21
g22
sbag7
(g8
g9
NtRp426
(dp427
g12
g13
sg14
S'GFS Didot Classic'
p428
sg16
I400
sg17
g13
sg18
g13
sg19
S'/usr/share/fonts/truetype/ttf-gfs-didot-classic/GFSDidotClassic.otf'
p429
sg21
g22
sbag7
(g8
g9
NtRp430
(dp431
g12
g13
sg14
S'Lucida Sans'
p432
sg16
I400
sg17
g13
sg18
g13
sg19
S'/usr/share/fonts/truetype/ttf-lucida/LucidaSansRegular.ttf'
p433
sg21
g22
sbag7
(g8
g9
NtRp434
(dp435
g12
g13
sg14
S'GFS Olga'
p436
sg16
I400
sg17
g13
sg18
g13
sg19
S'/usr/share/fonts/truetype/ttf-gfs-olga/GFSOlga.otf'
p437
sg21
g22
sbag7
(g8
g9
NtRp438
(dp439
g12
g13
sg14
S'Mono Uralic'
p440
sg16
I400
sg17
g13
sg18
g13
sg19
S'/usr/share/fonts/truetype/uralic/monou___.ttf'
p441
sg21
g22
sbag7
(g8
g9
NtRp442
(dp443
g12
g13
sg14
S'jsMath-cmmi10'
p444
sg16
I400
sg17
g13
sg18
g13
sg19
S'/usr/share/fonts/truetype/jsmath/jsMath-cmmi10.ttf'
p445
sg21
g22
sbag7
(g8
g9
NtRp446
(dp447
g12
g13
sg14
S'Gentium Basic'
p448
sg16
I700
sg17
g13
sg18
g13
sg19
S'/usr/share/fonts/truetype/ttf-sil-gentium-basic/GenBasB.ttf'
p449
sg21
g22
sbag7
(g8
g9
NtRp450
(dp451
g12
g29
sg14
S'Gentium'
p452
sg16
I400
sg17
g13
sg18
g13
sg19
S'/usr/share/fonts/truetype/ttf-sil-gentium/GenI102.ttf'
p453
sg21
g22
sbag7
(g8
g9
NtRp454
(dp455
g12
g13
sg14
S'Roman Uralic'
p456
sg16
I700
sg17
g13
sg18
g13
sg19
S'/usr/share/fonts/truetype/uralic/romaub__.ttf'
p457
sg21
g22
sbag7
(g8
g9
NtRp458
(dp459
g12
g13
sg14
S'GFS Theokritos'
p460
sg16
I400
sg17
g13
sg18
g13
sg19
S'/usr/share/fonts/truetype/ttf-gfs-theokritos/GFSTheokritos.otf'
p461
sg21
g22
sbag7
(g8
g9
NtRp462
(dp463
g12
g29
sg14
S'DejaVu Serif'
p464
sg16
I700
sg17
g119
sg18
g13
sg19
S'/usr/share/fonts/truetype/ttf-dejavu/DejaVuSerifCondensed-BoldItalic.ttf'
p465
sg21
g22
sbag7
(g8
g9
NtRp466
(dp467
g12
g13
sg14
S'esint10'
p468
sg16
I400
sg17
g13
sg18
g13
sg19
S'/usr/share/fonts/truetype/ttf-lyx/esint10.ttf'
p469
sg21
g22
sbag7
(g8
g9
NtRp470
(dp471
g12
g13
sg14
S'OpenSymbol'
p472
sg16
I400
sg17
g13
sg18
g13
sg19
S'/usr/share/fonts/truetype/openoffice/opens___.ttf'
p473
sg21
g22
sbag7
(g8
g9
NtRp474
(dp475
g12
g13
sg14
S'Schoolbook Uralic'
p476
sg16
I700
sg17
g13
sg18
g13
sg19
S'/usr/share/fonts/truetype/uralic/schoub__.ttf'
p477
sg21
g22
sbag7
(g8
g9
NtRp478
(dp479
g12
g13
sg14
S'Gothic Uralic'
p480
sg16
I400
sg17
g13
sg18
g13
sg19
S'/usr/share/fonts/truetype/uralic/gothu___.ttf'
p481
sg21
g22
sbag7
(g8
g9
NtRp482
(dp483
g12
g29
sg14
S'jsMath-cmmib10'
p484
sg16
I700
sg17
g13
sg18
g13
sg19
S'/usr/share/fonts/truetype/jsmath/jsMath-cmmib10.ttf'
p485
sg21
g22
sbag7
(g8
g9
NtRp486
(dp487
g12
g29
sg14
S'Bookman Uralic'
p488
sg16
I400
sg17
g13
sg18
g13
sg19
S'/usr/share/fonts/truetype/uralic/bookui__.ttf'
p489
sg21
g22
sbag7
(g8
g9
NtRp490
(dp491
g12
g13
sg14
S'jsMath-msbm10'
p492
sg16
I400
sg17
g13
sg18
g13
sg19
S'/usr/share/fonts/truetype/jsmath/jsMath-msbm10.ttf'
p493
sg21
g22
sbag7
(g8
g9
NtRp494
(dp495
g12
g13
sg14
S'GFS Baskerville'
p496
sg16
I400
sg17
g13
sg18
g13
sg19
S'/usr/share/fonts/truetype/ttf-gfs-baskerville/GFSBaskerville.otf'
p497
sg21
g22
sbag7
(g8
g9
NtRp498
(dp499
g12
g29
sg14
S'Palladio Uralic'
p500
sg16
I400
sg17
g13
sg18
g13
sg19
S'/usr/share/fonts/truetype/uralic/pallui__.ttf'
p501
sg21
g22
sbag7
(g8
g9
NtRp502
(dp503
g12
g13
sg14
S'DejaVu Serif'
p504
sg16
I400
sg17
g13
sg18
g13
sg19
S'/usr/share/fonts/truetype/ttf-dejavu/DejaVuSerif.ttf'
p505
sg21
g22
sbag7
(g8
g9
NtRp506
(dp507
g12
g13
sg14
S'Schoolbook Uralic'
p508
sg16
I400
sg17
g13
sg18
g13
sg19
S'/usr/share/fonts/truetype/uralic/schou___.ttf'
p509
sg21
g22
sbag7
(g8
g9
NtRp510
(dp511
g12
g127
sg14
S'Lucida Sans Typewriter'
p512
sg16
I400
sg17
g13
sg18
g13
sg19
S'/usr/share/fonts/truetype/ttf-lucida/LucidaTypewriterOblique.ttf'
p513
sg21
g22
sbag7
(g8
g9
NtRp514
(dp515
g12
g127
sg14
S'FreeSans'
p516
sg16
I700
sg17
g13
sg18
g13
sg19
S'/usr/share/fonts/truetype/freefont/FreeSansBoldOblique.ttf'
p517
sg21
g22
sbag7
(g8
g9
NtRp518
(dp519
g12
g13
sg14
S'Liberation Serif'
p520
sg16
I400
sg17
g13
sg18
g13
sg19
S'/usr/share/fonts/truetype/ttf-liberation/LiberationSerif-Regular.ttf'
p521
sg21
g22
sbag7
(g8
g9
NtRp522
(dp523
g12
g29
sg14
S'GFS Didot'
p524
sg16
I700
sg17
g13
sg18
g13
sg19
S'/usr/share/fonts/truetype/ttf-gfs-didot/GFSDidotBoldItalic.otf'
p525
sg21
g22
sbag7
(g8
g9
NtRp526
(dp527
g12
g13
sg14
S'GFS Porson'
p528
sg16
I400
sg17
g13
sg18
g13
sg19
S'/usr/share/fonts/truetype/ttf-gfs-porson/GFSPorson.otf'
p529
sg21
g22
sbag7
(g8
g9
NtRp530
(dp531
g12
g13
sg14
S'FreeSans'
p532
sg16
I400
sg17
g13
sg18
g13
sg19
S'/usr/share/fonts/truetype/freefont/FreeSans.ttf'
p533
sg21
g22
sbag7
(g8
g9
NtRp534
(dp535
g12
g13
sg14
S'jsMath-eurb10'
p536
sg16
I400
sg17
g13
sg18
g13
sg19
S'/usr/share/fonts/truetype/jsmath/jsMath-eurb10.ttf'
p537
sg21
g22
sbag7
(g8
g9
NtRp538
(dp539
g12
g13
sg14
S'GFS Didot'
p540
sg16
I700
sg17
g13
sg18
g13
sg19
S'/usr/share/fonts/truetype/ttf-gfs-didot/GFSDidotBold.otf'
p541
sg21
g22
sbag7
(g8
g9
NtRp542
(dp543
g12
g29
sg14
S'FreeSerif'
p544
sg16
I700
sg17
g13
sg18
g13
sg19
S'/usr/share/fonts/truetype/freefont/FreeSerifBoldItalic.ttf'
p545
sg21
g22
sbag7
(g8
g9
NtRp546
(dp547
g12
g13
sg14
S'Lucida Sans Typewriter'
p548
sg16
I700
sg17
g13
sg18
g13
sg19
S'/usr/share/fonts/truetype/ttf-lucida/LucidaTypewriterBold.ttf'
p549
sg21
g22
sbag7
(g8
g9
NtRp550
(dp551
g12
g13
sg14
S'msam10'
p552
sg16
I400
sg17
g13
sg18
g13
sg19
S'/usr/share/fonts/truetype/ttf-lyx/msam10.ttf'
p553
sg21
g22
sbag7
(g8
g9
NtRp554
(dp555
g12
g13
sg14
S'Gentium Basic'
p556
sg16
I400
sg17
g13
sg18
g13
sg19
S'/usr/share/fonts/truetype/ttf-sil-gentium-basic/GenBasR.ttf'
p557
sg21
g22
sbag7
(g8
g9
NtRp558
(dp559
g12
g13
sg14
S'Liberation Sans Narrow'
p560
sg16
I700
sg17
g119
sg18
g13
sg19
S'/usr/share/fonts/truetype/ttf-liberation/LiberationSansNarrow-Bold.ttf'
p561
sg21
g22
sbag7
(g8
g9
NtRp562
(dp563
g12
g13
sg14
S'jsMath-stmary10'
p564
sg16
I400
sg17
g13
sg18
g13
sg19
S'/usr/share/fonts/truetype/jsmath/jsMath-stmary10.ttf'
p565
sg21
g22
sbag7
(g8
g9
NtRp566
(dp567
g12
g29
sg14
S'GFS Neohellenic'
p568
sg16
I700
sg17
g13
sg18
g13
sg19
S'/usr/share/fonts/truetype/ttf-gfs-neohellenic/GFSNeohellenicBoldIt.otf'
p569
sg21
g22
sbag7
(g8
g9
NtRp570
(dp571
g12
g13
sg14
S'Lucida Bright'
p572
sg16
I700
sg17
g13
sg18
g13
sg19
S'/usr/share/fonts/truetype/ttf-lucida/LucidaBrightDemiBold.ttf'
p573
sg21
g22
sbag7
(g8
g9
NtRp574
(dp575
g12
g13
sg14
S'jsMath-cmbsy10'
p576
sg16
I700
sg17
g13
sg18
g13
sg19
S'/usr/share/fonts/truetype/jsmath/jsMath-cmbsy10.ttf'
p577
sg21
g22
sbag7
(g8
g9
NtRp578
(dp579
g12
g13
sg14
S'jsMath-wasyb10'
p580
sg16
I400
sg17
g13
sg18
g13
sg19
S'/usr/share/fonts/truetype/jsmath/jsMath-wasyb10.ttf'
p581
sg21
g22
sbag7
(g8
g9
NtRp582
(dp583
g12
g29
sg14
S'DejaVu Serif'
p584
sg16
I400
sg17
g119
sg18
g13
sg19
S'/usr/share/fonts/truetype/ttf-dejavu/DejaVuSerifCondensed-Italic.ttf'
p585
sg21
g22
sbag7
(g8
g9
NtRp586
(dp587
g12
g127
sg14
S'FreeMono'
p588
sg16
I400
sg17
g13
sg18
g13
sg19
S'/usr/share/fonts/truetype/freefont/FreeMonoOblique.ttf'
p589
sg21
g22
sbag7
(g8
g9
NtRp590
(dp591
g12
g13
sg14
S'jsMath-wasy10'
p592
sg16
I400
sg17
g13
sg18
g13
sg19
S'/usr/share/fonts/truetype/jsmath/jsMath-wasy10.ttf'
p593
sg21
g22
sbag7
(g8
g9
NtRp594
(dp595
g12
g29
sg14
S'GFS Artemisia'
p596
sg16
I400
sg17
g13
sg18
g13
sg19
S'/usr/share/fonts/truetype/ttf-gfs-artemisia/GFSArtemisiaIt.otf'
p597
sg21
g22
sbag7
(g8
g9
NtRp598
(dp599
g12
g29
sg14
S'GentiumAlt'
p600
sg16
I400
sg17
g13
sg18
g13
sg19
S'/usr/share/fonts/truetype/ttf-sil-gentium/GenAI102.ttf'
p601
sg21
g22
sbag7
(g8
g9
NtRp602
(dp603
g12
g13
sg14
S'FreeSerif'
p604
sg16
I400
sg17
g13
sg18
g13
sg19
S'/usr/share/fonts/truetype/freefont/FreeSerif.ttf'
p605
sg21
g22
sbag7
(g8
g9
NtRp606
(dp607
g12
g13
sg14
S'jsMath-eufm10'
p608
sg16
I400
sg17
g13
sg18
g13
sg19
S'/usr/share/fonts/truetype/jsmath/jsMath-eufm10.ttf'
p609
sg21
g22
sbag7
(g8
g9
NtRp610
(dp611
g12
g13
sg14
S'Liberation Mono'
p612
sg16
I400
sg17
g13
sg18
g13
sg19
S'/usr/share/fonts/truetype/ttf-liberation/LiberationMono-Regular.ttf'
p613
sg21
g22
sbag7
(g8
g9
NtRp614
(dp615
g12
g29
sg14
S'Gentium Book Basic'
p616
sg16
I700
sg17
g13
sg18
g13
sg19
S'/usr/share/fonts/truetype/ttf-sil-gentium-basic/GenBkBasBI.ttf'
p617
sg21
g22
sbag7
(g8
g9
NtRp618
(dp619
g12
g13
sg14
S'Sans Uralic'
p620
sg16
I700
sg17
g13
sg18
g13
sg19
S'/usr/share/fonts/truetype/uralic/sansub__.ttf'
p621
sg21
g22
sbag7
(g8
g9
NtRp622
(dp623
g12
g13
sg14
S'jsMath-lasyb10'
p624
sg16
I400
sg17
g13
sg18
g13
sg19
S'/usr/share/fonts/truetype/jsmath/jsMath-lasyb10.ttf'
p625
sg21
g22
sbag7
(g8
g9
NtRp626
(dp627
g12
g13
sg14
S'jsMath-cmr10'
p628
sg16
I400
sg17
g13
sg18
g13
sg19
S'/usr/share/fonts/truetype/jsmath/jsMath-cmr10.ttf'
p629
sg21
g22
sbag7
(g8
g9
NtRp630
(dp631
g12
g13
sg14
S'Roman Uralic'
p632
sg16
I500
sg17
g13
sg18
g13
sg19
S'/usr/share/fonts/truetype/uralic/romau___.ttf'
p633
sg21
g22
sbag7
(g8
g9
NtRp634
(dp635
g12
g29
sg14
S'Schoolbook Uralic'
p636
sg16
I400
sg17
g13
sg18
g13
sg19
S'/usr/share/fonts/truetype/uralic/schoui__.ttf'
p637
sg21
g22
sbag7
(g8
g9
NtRp638
(dp639
g12
g29
sg14
S'Liberation Serif'
p640
sg16
I700
sg17
g13
sg18
g13
sg19
S'/usr/share/fonts/truetype/ttf-liberation/LiberationSerif-BoldItalic.ttf'
p641
sg21
g22
sbag7
(g8
g9
NtRp642
(dp643
g12
g127
sg14
S'Lucida Sans Typewriter'
p644
sg16
I700
sg17
g13
sg18
g13
sg19
S'/usr/share/fonts/truetype/ttf-lucida/LucidaTypewriterBoldOblique.ttf'
p645
sg21
g22
sbag7
(g8
g9
NtRp646
(dp647
g12
g29
sg14
S'Gentium Basic'
p648
sg16
I700
sg17
g13
sg18
g13
sg19
S'/usr/share/fonts/truetype/ttf-sil-gentium-basic/GenBasBI.ttf'
p649
sg21
g22
sbag7
(g8
g9
NtRp650
(dp651
g12
g13
sg14
S'DejaVu Serif'
p652
sg16
I400
sg17
g119
sg18
g13
sg19
S'/usr/share/fonts/truetype/ttf-dejavu/DejaVuSerifCondensed.ttf'
p653
sg21
g22
sbag7
(g8
g9
NtRp654
(dp655
g12
g29
sg14
S'Liberation Mono'
p656
sg16
I700
sg17
g13
sg18
g13
sg19
S'/usr/share/fonts/truetype/ttf-liberation/LiberationMono-BoldItalic.ttf'
p657
sg21
g22
sbag7
(g8
g9
NtRp658
(dp659
g12
g13
sg14
S'GFS BodoniClassic'
p660
sg16
I400
sg17
g13
sg18
g13
sg19
S'/usr/share/fonts/truetype/ttf-gfs-bodoni-classic/GFSBodoniClassic.otf'
p661
sg21
g22
sbag7
(g8
g9
NtRp662
(dp663
g12
g13
sg14
S'Gothic Uralic'
p664
sg16
I700
sg17
g13
sg18
g13
sg19
S'/usr/share/fonts/truetype/uralic/gothub__.ttf'
p665
sg21
g22
sbag7
(g8
g9
NtRp666
(dp667
g12
g127
sg14
S'Lucida Sans'
p668
sg16
I700
sg17
g13
sg18
g13
sg19
S'/usr/share/fonts/truetype/ttf-lucida/LucidaSansDemiOblique.ttf'
p669
sg21
g22
sbag7
(g8
g9
NtRp670
(dp671
g12
g13
sg14
S'jsMath-eurm10'
p672
sg16
I400
sg17
g13
sg18
g13
sg19
S'/usr/share/fonts/truetype/jsmath/jsMath-eurm10.ttf'
p673
sg21
g22
sbag7
(g8
g9
NtRp674
(dp675
g12
g13
sg14
S'FreeMono'
p676
sg16
I400
sg17
g13
sg18
g13
sg19
S'/usr/share/fonts/truetype/freefont/FreeMono.ttf'
p677
sg21
g22
sbag7
(g8
g9
NtRp678
(dp679
g12
g13
sg14
S'GFS Artemisia'
p680
sg16
I700
sg17
g13
sg18
g13
sg19
S'/usr/share/fonts/truetype/ttf-gfs-artemisia/GFSArtemisiaBold.otf'
p681
sg21
g22
sbag7
(g8
g9
NtRp682
(dp683
g12
g13
sg14
S'Untitled1'
p684
sg16
I400
sg17
g13
sg18
g13
sg19
S'/usr/share/fonts/truetype/freefont/Untitled1.ttf'
p685
sg21
g22
sbag7
(g8
g9
NtRp686
(dp687
g12
g29
sg14
S'FreeSerif'
p688
sg16
I400
sg17
g13
sg18
g13
sg19
S'/usr/share/fonts/truetype/freefont/FreeSerifItalic.ttf'
p689
sg21
g22
sbag7
(g8
g9
NtRp690
(dp691
g12
g13
sg14
S'Lucida Sans Typewriter'
p692
sg16
I400
sg17
g13
sg18
g13
sg19
S'/usr/share/fonts/truetype/ttf-lucida/LucidaTypewriterRegular.ttf'
p693
sg21
g22
sbag7
(g8
g9
NtRp694
(dp695
g12
g13
sg14
S'Lucida Sans'
p696
sg16
I700
sg17
g13
sg18
g13
sg19
S'/usr/share/fonts/truetype/ttf-lucida/LucidaSansDemiBold.ttf'
p697
sg21
g22
sbag7
(g8
g9
NtRp698
(dp699
g12
g29
sg14
S'Sans Uralic'
p700
sg16
I700
sg17
g13
sg18
g13
sg19
S'/usr/share/fonts/truetype/uralic/sansubi_.ttf'
p701
sg21
g22
sbag7
(g8
g9
NtRp702
(dp703
g12
g13
sg14
S'Liberation Sans'
p704
sg16
I400
sg17
g13
sg18
g13
sg19
S'/usr/share/fonts/truetype/ttf-liberation/LiberationSans-Regular.ttf'
p705
sg21
g22
sbasS'ttffiles'
p706
(lp707
S'/usr/share/matplotlib/mpl-data/fonts/ttf/cmb10.ttf'
p708
aS'/usr/share/matplotlib/mpl-data/fonts/ttf/cmex10.ttf'
p709
aS'/usr/share/matplotlib/mpl-data/fonts/ttf/STIXNonUniIta.ttf'
p710
aS'/usr/share/matplotlib/mpl-data/fonts/ttf/STIXNonUni.ttf'
p711
aS'/usr/share/matplotlib/mpl-data/fonts/ttf/STIXSiz5Sym.ttf'
p712
aS'/usr/share/matplotlib/mpl-data/fonts/ttf/cmtt10.ttf'
p713
aS'/usr/share/matplotlib/mpl-data/fonts/ttf/STIXGeneral.ttf'
p714
aS'/usr/share/matplotlib/mpl-data/fonts/ttf/STIXNonUniBolIta.ttf'
p715
aS'/usr/share/matplotlib/mpl-data/fonts/ttf/STIXSiz3SymBol.ttf'
p716
aS'/usr/share/matplotlib/mpl-data/fonts/ttf/STIXSiz3Sym.ttf'
p717
aS'/usr/share/matplotlib/mpl-data/fonts/ttf/STIXSiz2Sym.ttf'
p718
aS'/usr/share/matplotlib/mpl-data/fonts/ttf/STIXGeneralBol.ttf'
p719
aS'/usr/share/matplotlib/mpl-data/fonts/ttf/STIXSiz4SymBol.ttf'
p720
aS'/usr/share/matplotlib/mpl-data/fonts/ttf/STIXSiz2SymBol.ttf'
p721
aS'/usr/share/matplotlib/mpl-data/fonts/ttf/cmsy10.ttf'
p722
aS'/usr/share/matplotlib/mpl-data/fonts/ttf/cmss10.ttf'
p723
aS'/usr/share/matplotlib/mpl-data/fonts/ttf/STIXSiz1SymBol.ttf'
p724
aS'/usr/share/matplotlib/mpl-data/fonts/ttf/STIXGeneralItalic.ttf'
p725
aS'/usr/share/matplotlib/mpl-data/fonts/ttf/cmr10.ttf'
p726
aS'/usr/share/matplotlib/mpl-data/fonts/ttf/STIXSiz4Sym.ttf'
p727
aS'/usr/share/matplotlib/mpl-data/fonts/ttf/STIXSiz1Sym.ttf'
p728
aS'/usr/share/matplotlib/mpl-data/fonts/ttf/cmmi10.ttf'
p729
aS'/usr/share/matplotlib/mpl-data/fonts/ttf/STIXNonUniBol.ttf'
p730
aS'/usr/share/matplotlib/mpl-data/fonts/ttf/STIXGeneralBolIta.ttf'
p731
aS'/usr/share/fonts/truetype/ttf-liberation/LiberationSansNarrow-Regular.ttf'
p732
aS'/usr/share/fonts/truetype/jsmath/jsMath-cmti10.ttf'
p733
aS'/usr/share/fonts/truetype/ttf-dejavu/DejaVuSans-Oblique.ttf'
p734
aS'/usr/share/fonts/truetype/ttf-gfs-solomos/GFSSolomos.otf'
p735
aS'/usr/share/fonts/truetype/ttf-liberation/LiberationSans-Bold.ttf'
p736
aS'/usr/share/fonts/truetype/ttf-sil-gentium-basic/GenBkBasI.ttf'
p737
aS'/usr/share/fonts/truetype/ttf-liberation/LiberationSans-Italic.ttf'
p738
aS'/usr/share/fonts/truetype/jsmath/jsMath-eufb10.ttf'
p739
aS'/usr/share/fonts/truetype/ttf-sil-gentium-basic/GenBkBasR.ttf'
p740
aS'/usr/share/fonts/truetype/ttf-dejavu/DejaVuSansMono-Oblique.ttf'
p741
aS'/usr/share/fonts/truetype/ttf-lyx/rsfs10.ttf'
p742
aS'/usr/share/fonts/truetype/ttf-dejavu/DejaVuSansCondensed.ttf'
p743
aS'/usr/share/fonts/truetype/ttf-liberation/LiberationMono-Bold.ttf'
p744
aS'/usr/share/fonts/truetype/ttf-lyx/msbm10.ttf'
p745
aS'/usr/share/fonts/truetype/ttf-dejavu/DejaVuSerif-BoldItalic.ttf'
p746
aS'/usr/share/fonts/truetype/ttf-dejavu/DejaVuSansMono.ttf'
p747
aS'/usr/share/fonts/truetype/ttf-lyx/cmmi10.ttf'
p748
aS'/usr/share/fonts/truetype/ttf-lucida/LucidaBrightRegular.ttf'
p749
aS'/usr/share/fonts/truetype/uralic/sanscub_.ttf'
p750
aS'/usr/share/fonts/truetype/jsmath/jsMath-lasy10.ttf'
p751
aS'/usr/share/fonts/truetype/uralic/pallu___.ttf'
p752
aS'/usr/share/fonts/truetype/freefont/FreeSerifBold.ttf'
p753
aS'/usr/share/fonts/truetype/freefont/FreeMonoBoldOblique.ttf'
p754
aS'/usr/share/fonts/truetype/ttf-liberation/LiberationMono-Italic.ttf'
p755
aS'/usr/share/fonts/truetype/ttf-dejavu/DejaVuSerif-Bold.ttf'
p756
aS'/usr/share/fonts/truetype/ttf-gfs-neohellenic/GFSNeohellenic.otf'
p757
aS'/usr/share/fonts/truetype/ttf-gfs-artemisia/GFSArtemisiaBoldIt.otf'
p758
aS'/usr/share/fonts/truetype/ttf-dejavu/DejaVuSerif-Italic.ttf'
p759
aS'/usr/share/fonts/truetype/ttf-sil-gentium-basic/GenBasI.ttf'
p760
aS'/usr/share/fonts/truetype/freefont/FreeSansOblique.ttf'
p761
aS'/usr/share/fonts/truetype/uralic/romaui__.ttf'
p762
aS'/usr/share/fonts/truetype/uralic/bookub__.ttf'
p763
aS'/usr/share/fonts/truetype/jsmath/jsMath-cmss10.ttf'
p764
aS'/usr/share/fonts/truetype/jsmath/jsMath-cmbx10.ttf'
p765
aS'/usr/share/fonts/truetype/ttf-lucida/LucidaBrightDemiItalic.ttf'
p766
aS'/usr/share/fonts/truetype/ttf-lyx/eufm10.ttf'
p767
aS'/usr/share/fonts/truetype/ttf-dejavu/DejaVuSans-BoldOblique.ttf'
p768
aS'/usr/share/fonts/truetype/ttf-liberation/LiberationSansNarrow-Italic.ttf'
p769
aS'/usr/share/fonts/truetype/ttf-lyx/wasy10.ttf'
p770
aS'/usr/share/fonts/truetype/ttf-dejavu/DejaVuSansCondensed-BoldOblique.ttf'
p771
aS'/usr/share/fonts/truetype/ttf-dejavu/DejaVuSansCondensed-Bold.ttf'
p772
aS'/usr/share/fonts/truetype/ttf-gfs-gazis/GFSGazis.otf'
p773
aS'/usr/share/fonts/truetype/uralic/sansui__.ttf'
p774
aS'/usr/share/fonts/truetype/jsmath/jsMath-rsfs10.ttf'
p775
aS'/usr/share/fonts/truetype/uralic/pallub__.ttf'
p776
aS'/usr/share/fonts/truetype/uralic/sansu___.ttf'
p777
aS'/usr/share/fonts/truetype/ttf-lucida/LucidaSansOblique.ttf'
p778
aS'/usr/share/fonts/truetype/uralic/booku___.ttf'
p779
aS'/usr/share/fonts/truetype/ttf-dejavu/DejaVuSansMono-Bold.ttf'
p780
aS'/usr/share/fonts/truetype/ttf-gfs-artemisia/GFSArtemisia.otf'
p781
aS'/usr/share/fonts/truetype/jsmath/jsMath-msam10.ttf'
p782
aS'/usr/share/fonts/truetype/ttf-dejavu/DejaVuSansCondensed-Oblique.ttf'
p783
aS'/usr/share/fonts/truetype/ttf-sil-gentium/GenR102.ttf'
p784
aS'/usr/share/fonts/truetype/ttf-dejavu/DejaVuSerifCondensed-Bold.ttf'
p785
aS'/usr/share/fonts/truetype/ttf-liberation/LiberationSerif-Italic.ttf'
p786
aS'/usr/share/fonts/truetype/ttf-gfs-didot/GFSDidot.otf'
p787
aS'/usr/share/fonts/truetype/ttf-sil-gentium-basic/GenBkBasB.ttf'
p788
aS'/usr/share/fonts/truetype/ttf-liberation/LiberationSansNarrow-BoldItalic.ttf'
p789
aS'/usr/share/fonts/truetype/uralic/chanui__.ttf'
p790
aS'/usr/share/fonts/truetype/ttf-liberation/LiberationSerif-Bold.ttf'
p791
aS'/usr/share/fonts/truetype/ttf-lucida/LucidaBrightItalic.ttf'
p792
aS'/usr/share/fonts/truetype/ttf-gfs-neohellenic/GFSNeohellenicIt.otf'
p793
aS'/usr/share/fonts/truetype/ttf-liberation/LiberationSans-BoldItalic.ttf'
p794
aS'/usr/share/fonts/truetype/ttf-sil-gentium/GenAR102.ttf'
p795
aS'/usr/share/fonts/truetype/jsmath/jsMath-eusm10.ttf'
p796
aS'/usr/share/fonts/truetype/jsmath/jsMath-eusb10.ttf'
p797
aS'/usr/share/fonts/truetype/ttf-dejavu/DejaVuSans.ttf'
p798
aS'/usr/share/fonts/truetype/jsmath/jsMath-cmex10.ttf'
p799
aS'/usr/share/fonts/truetype/freefont/FreeSansBold.ttf'
p800
aS'/usr/share/fonts/truetype/jsmath/jsMath-bbold10.ttf'
p801
aS'/usr/share/fonts/truetype/ttf-dejavu/DejaVuSansMono-BoldOblique.ttf'
p802
aS'/usr/share/fonts/truetype/ttf-gfs-neohellenic/GFSNeohellenicBold.otf'
p803
aS'/usr/share/fonts/truetype/freefont/FreeMonoBold.ttf'
p804
aS'/usr/share/fonts/truetype/ttf-dejavu/DejaVuSans-Bold.ttf'
p805
aS'/usr/share/fonts/truetype/ttf-dejavu/DejaVuSans-ExtraLight.ttf'
p806
aS'/usr/share/fonts/truetype/ttf-gfs-didot/GFSDidotItalic.otf'
p807
aS'/usr/share/fonts/truetype/uralic/sanscu__.ttf'
p808
aS'/usr/share/fonts/truetype/jsmath/jsMath-cmsy10.ttf'
p809
aS'/usr/share/fonts/truetype/ttf-gfs-didot-classic/GFSDidotClassic.otf'
p810
aS'/usr/share/fonts/truetype/ttf-lucida/LucidaSansRegular.ttf'
p811
aS'/usr/share/fonts/truetype/ttf-gfs-olga/GFSOlga.otf'
p812
aS'/usr/share/fonts/truetype/uralic/monou___.ttf'
p813
aS'/usr/share/fonts/truetype/jsmath/jsMath-cmmi10.ttf'
p814
aS'/usr/share/fonts/truetype/ttf-sil-gentium-basic/GenBasB.ttf'
p815
aS'/usr/share/fonts/truetype/ttf-sil-gentium/GenI102.ttf'
p816
aS'/usr/share/fonts/truetype/uralic/romaub__.ttf'
p817
aS'/usr/share/fonts/truetype/ttf-gfs-theokritos/GFSTheokritos.otf'
p818
aS'/usr/share/fonts/truetype/ttf-dejavu/DejaVuSerifCondensed-BoldItalic.ttf'
p819
aS'/usr/share/fonts/truetype/ttf-lyx/esint10.ttf'
p820
aS'/usr/share/fonts/truetype/ttf-lyx/cmsy10.ttf'
p821
aS'/usr/share/fonts/truetype/openoffice/opens___.ttf'
p822
aS'/usr/share/fonts/truetype/uralic/schoub__.ttf'
p823
aS'/usr/share/fonts/truetype/uralic/gothu___.ttf'
p824
aS'/usr/share/fonts/truetype/jsmath/jsMath-cmmib10.ttf'
p825
aS'/usr/share/fonts/truetype/uralic/bookui__.ttf'
p826
aS'/usr/share/fonts/truetype/jsmath/jsMath-msbm10.ttf'
p827
aS'/usr/share/fonts/truetype/ttf-gfs-baskerville/GFSBaskerville.otf'
p828
aS'/usr/share/fonts/truetype/uralic/pallui__.ttf'
p829
aS'/usr/share/fonts/truetype/ttf-dejavu/DejaVuSerif.ttf'
p830
aS'/usr/share/fonts/truetype/uralic/schou___.ttf'
p831
aS'/usr/share/fonts/truetype/ttf-lucida/LucidaTypewriterOblique.ttf'
p832
aS'/usr/share/fonts/truetype/freefont/FreeSansBoldOblique.ttf'
p833
aS'/usr/share/fonts/truetype/ttf-liberation/LiberationSerif-Regular.ttf'
p834
aS'/usr/share/fonts/truetype/ttf-gfs-didot/GFSDidotBoldItalic.otf'
p835
aS'/usr/share/fonts/truetype/ttf-gfs-porson/GFSPorson.otf'
p836
aS'/usr/share/fonts/truetype/freefont/FreeSans.ttf'
p837
aS'/usr/share/fonts/truetype/jsmath/jsMath-eurb10.ttf'
p838
aS'/usr/share/fonts/truetype/ttf-lyx/cmr10.ttf'
p839
aS'/usr/share/fonts/truetype/ttf-gfs-didot/GFSDidotBold.otf'
p840
aS'/usr/share/fonts/truetype/freefont/FreeSerifBoldItalic.ttf'
p841
aS'/usr/share/fonts/truetype/ttf-lucida/LucidaTypewriterBold.ttf'
p842
aS'/usr/share/fonts/truetype/ttf-lyx/msam10.ttf'
p843
aS'/usr/share/fonts/truetype/ttf-sil-gentium-basic/GenBasR.ttf'
p844
aS'/usr/share/fonts/truetype/ttf-liberation/LiberationSansNarrow-Bold.ttf'
p845
aS'/usr/share/fonts/truetype/jsmath/jsMath-stmary10.ttf'
p846
aS'/usr/share/fonts/truetype/ttf-gfs-neohellenic/GFSNeohellenicBoldIt.otf'
p847
aS'/usr/share/fonts/truetype/ttf-lucida/LucidaBrightDemiBold.ttf'
p848
aS'/usr/share/fonts/truetype/jsmath/jsMath-cmbsy10.ttf'
p849
aS'/usr/share/fonts/truetype/jsmath/jsMath-wasyb10.ttf'
p850
aS'/usr/share/fonts/truetype/ttf-dejavu/DejaVuSerifCondensed-Italic.ttf'
p851
aS'/usr/share/fonts/truetype/freefont/FreeMonoOblique.ttf'
p852
aS'/usr/share/fonts/truetype/jsmath/jsMath-wasy10.ttf'
p853
aS'/usr/share/fonts/truetype/ttf-gfs-artemisia/GFSArtemisiaIt.otf'
p854
aS'/usr/share/fonts/truetype/ttf-sil-gentium/GenAI102.ttf'
p855
aS'/usr/share/fonts/truetype/freefont/FreeSerif.ttf'
p856
aS'/usr/share/fonts/truetype/jsmath/jsMath-eufm10.ttf'
p857
aS'/usr/share/fonts/truetype/ttf-liberation/LiberationMono-Regular.ttf'
p858
aS'/usr/share/fonts/truetype/ttf-sil-gentium-basic/GenBkBasBI.ttf'
p859
aS'/usr/share/fonts/truetype/uralic/sansub__.ttf'
p860
aS'/usr/share/fonts/truetype/jsmath/jsMath-lasyb10.ttf'
p861
aS'/usr/share/fonts/truetype/jsmath/jsMath-cmr10.ttf'
p862
aS'/usr/share/fonts/truetype/uralic/romau___.ttf'
p863
aS'/usr/share/fonts/truetype/uralic/schoui__.ttf'
p864
aS'/usr/share/fonts/truetype/ttf-liberation/LiberationSerif-BoldItalic.ttf'
p865
aS'/usr/share/fonts/truetype/ttf-lucida/LucidaTypewriterBoldOblique.ttf'
p866
aS'/usr/share/fonts/truetype/ttf-sil-gentium-basic/GenBasBI.ttf'
p867
aS'/usr/share/fonts/truetype/ttf-dejavu/DejaVuSerifCondensed.ttf'
p868
aS'/usr/share/fonts/truetype/ttf-liberation/LiberationMono-BoldItalic.ttf'
p869
aS'/usr/share/fonts/truetype/ttf-gfs-bodoni-classic/GFSBodoniClassic.otf'
p870
aS'/usr/share/fonts/truetype/uralic/gothub__.ttf'
p871
aS'/usr/share/fonts/truetype/ttf-lucida/LucidaSansDemiOblique.ttf'
p872
aS'/usr/share/fonts/truetype/jsmath/jsMath-eurm10.ttf'
p873
aS'/usr/share/fonts/truetype/freefont/FreeMono.ttf'
p874
aS'/usr/share/fonts/truetype/ttf-gfs-artemisia/GFSArtemisiaBold.otf'
p875
aS'/usr/share/fonts/truetype/freefont/Untitled1.ttf'
p876
aS'/usr/share/fonts/truetype/freefont/FreeSerifItalic.ttf'
p877
aS'/usr/share/fonts/truetype/ttf-lucida/LucidaTypewriterRegular.ttf'
p878
aS'/usr/share/fonts/truetype/ttf-lucida/LucidaSansDemiBold.ttf'
p879
aS'/usr/share/fonts/truetype/uralic/sansubi_.ttf'
p880
aS'/usr/share/fonts/truetype/ttf-liberation/LiberationSans-Regular.ttf'
p881
aS'/usr/share/fonts/truetype/ttf-lyx/cmex10.ttf'
p882
asS'_FontManager__default_weight'
p883
g13
sS'ttf_lookup_cache'
p884
(dp885
sS'default_size'
p886
NsS'defaultFont'
p887
g708
sS'afmfiles'
p888
(lp889
S'/usr/share/matplotlib/mpl-data/fonts/afm/phvl8a.afm'
p890
aS'/usr/share/matplotlib/mpl-data/fonts/afm/pzcmi8a.afm'
p891
aS'/usr/share/matplotlib/mpl-data/fonts/afm/pplb8a.afm'
p892
aS'/usr/share/matplotlib/mpl-data/fonts/afm/putbi8a.afm'
p893
aS'/usr/share/matplotlib/mpl-data/fonts/afm/phvro8an.afm'
p894
aS'/usr/share/matplotlib/mpl-data/fonts/afm/pbkd8a.afm'
p895
aS'/usr/share/matplotlib/mpl-data/fonts/afm/pcrbo8a.afm'
p896
aS'/usr/share/matplotlib/mpl-data/fonts/afm/putr8a.afm'
p897
aS'/usr/share/matplotlib/mpl-data/fonts/afm/pagdo8a.afm'
p898
aS'/usr/share/matplotlib/mpl-data/fonts/afm/pcrr8a.afm'
p899
aS'/usr/share/matplotlib/mpl-data/fonts/afm/pncri8a.afm'
p900
aS'/usr/share/matplotlib/mpl-data/fonts/afm/pncb8a.afm'
p901
aS'/usr/share/matplotlib/mpl-data/fonts/afm/pcrro8a.afm'
p902
aS'/usr/share/matplotlib/mpl-data/fonts/afm/phvr8a.afm'
p903
aS'/usr/share/matplotlib/mpl-data/fonts/afm/cmtt10.afm'
p904
aS'/usr/share/matplotlib/mpl-data/fonts/afm/phvr8an.afm'
p905
aS'/usr/share/matplotlib/mpl-data/fonts/afm/phvro8a.afm'
p906
aS'/usr/share/matplotlib/mpl-data/fonts/afm/ptmr8a.afm'
p907
aS'/usr/share/matplotlib/mpl-data/fonts/afm/pplbi8a.afm'
p908
aS'/usr/share/matplotlib/mpl-data/fonts/afm/cmsy10.afm'
p909
aS'/usr/share/matplotlib/mpl-data/fonts/afm/pagk8a.afm'
p910
aS'/usr/share/matplotlib/mpl-data/fonts/afm/putb8a.afm'
p911
aS'/usr/share/matplotlib/mpl-data/fonts/afm/cmmi10.afm'
p912
aS'/usr/share/matplotlib/mpl-data/fonts/afm/pagko8a.afm'
p913
aS'/usr/share/matplotlib/mpl-data/fonts/afm/pbkdi8a.afm'
p914
aS'/usr/share/matplotlib/mpl-data/fonts/afm/phvbo8a.afm'
p915
aS'/usr/share/matplotlib/mpl-data/fonts/afm/cmr10.afm'
p916
aS'/usr/share/matplotlib/mpl-data/fonts/afm/ptmb8a.afm'
p917
aS'/usr/share/matplotlib/mpl-data/fonts/afm/phvlo8a.afm'
p918
aS'/usr/share/matplotlib/mpl-data/fonts/afm/phvb8a.afm'
p919
aS'/usr/share/matplotlib/mpl-data/fonts/afm/pzdr.afm'
p920
aS'/usr/share/matplotlib/mpl-data/fonts/afm/ptmri8a.afm'
p921
aS'/usr/share/matplotlib/mpl-data/fonts/afm/pplr8a.afm'
p922
aS'/usr/share/matplotlib/mpl-data/fonts/afm/pbkl8a.afm'
p923
aS'/usr/share/matplotlib/mpl-data/fonts/afm/pncbi8a.afm'
p924
aS'/usr/share/matplotlib/mpl-data/fonts/afm/psyr.afm'
p925
aS'/usr/share/matplotlib/mpl-data/fonts/afm/pplri8a.afm'
p926
aS'/usr/share/matplotlib/mpl-data/fonts/afm/ptmbi8a.afm'
p927
aS'/usr/share/matplotlib/mpl-data/fonts/afm/pbkli8a.afm'
p928
aS'/usr/share/matplotlib/mpl-data/fonts/afm/pcrb8a.afm'
p929
aS'/usr/share/matplotlib/mpl-data/fonts/afm/pagd8a.afm'
p930
aS'/usr/share/matplotlib/mpl-data/fonts/afm/pncr8a.afm'
p931
aS'/usr/share/matplotlib/mpl-data/fonts/afm/phvbo8an.afm'
p932
aS'/usr/share/matplotlib/mpl-data/fonts/afm/cmex10.afm'
p933
aS'/usr/share/matplotlib/mpl-data/fonts/afm/putri8a.afm'
p934
aS'/usr/share/matplotlib/mpl-data/fonts/afm/phvb8an.afm'
p935
aS'/usr/share/fonts/X11/Type1/lmtt10.afm'
p936
aS'/usr/share/fonts/type1/gsfonts/p052004l.afm'
p937
aS'/usr/share/fonts/X11/Type1/lmssqo8.afm'
p938
aS'/usr/share/fonts/type1/gsfonts/b018015l.afm'
p939
aS'/usr/share/fonts/X11/Type1/lmbxo10.afm'
p940
aS'/usr/share/fonts/type1/gsfonts/n022024l.afm'
p941
aS'/usr/share/fonts/X11/Type1/lmtlc10.afm'
p942
aS'/usr/share/fonts/type1/gsfonts/n019004l.afm'
p943
aS'/usr/share/fonts/X11/Type1/lmtk10.afm'
p944
aS'/usr/share/fonts/X11/Type1/qbkr.afm'
p945
aS'/usr/share/fonts/X11/Type1/lmdunh10.afm'
p946
aS'/usr/share/fonts/type1/gsfonts/n019003l.afm'
p947
aS'/usr/share/fonts/X11/Type1/qcsri.afm'
p948
aS'/usr/share/fonts/X11/Type1/qcrr.afm'
p949
aS'/usr/share/fonts/type1/gsfonts/c059036l.afm'
p950
aS'/usr/share/fonts/type1/gsfonts/c059013l.afm'
p951
aS'/usr/share/fonts/X11/Type1/qtmb.afm'
p952
aS'/usr/share/fonts/X11/Type1/qhvcb.afm'
p953
aS'/usr/share/fonts/X11/Type1/lmssbx10.afm'
p954
aS'/usr/share/fonts/X11/Type1/lmvtlo10.afm'
p955
aS'/usr/share/fonts/X11/Type1/lmtcso10.afm'
p956
aS'/usr/share/fonts/X11/Type1/lmtti10.afm'
p957
aS'/usr/share/fonts/X11/Type1/c0419bt_.afm'
p958
aS'/usr/share/fonts/type1/gsfonts/n021024l.afm'
p959
aS'/usr/share/fonts/type1/gsfonts/n019024l.afm'
p960
aS'/usr/share/fonts/X11/Type1/qhvbi.afm'
p961
aS'/usr/share/fonts/X11/Type1/qcsb.afm'
p962
aS'/usr/share/fonts/X11/Type1/lmbx10.afm'
p963
aS'/usr/share/fonts/type1/gsfonts/d050000l.afm'
p964
aS'/usr/share/fonts/X11/Type1/lmssdo10.afm'
p965
aS'/usr/share/fonts/X11/Type1/lmssqbx8.afm'
p966
aS'/usr/share/fonts/X11/Type1/qhvb.afm'
p967
aS'/usr/share/fonts/X11/Type1/c0649bt_.afm'
p968
aS'/usr/share/fonts/type1/gsfonts/n019044l.afm'
p969
aS'/usr/share/fonts/type1/gsfonts/z003034l.afm'
p970
aS'/usr/share/fonts/X11/Type1/qhvr.afm'
p971
aS'/usr/share/fonts/X11/Type1/lmbxi10.afm'
p972
aS'/usr/share/fonts/type1/gsfonts/b018012l.afm'
p973
aS'/usr/share/fonts/X11/Type1/lmro10.afm'
p974
aS'/usr/share/fonts/X11/Type1/qplr.afm'
p975
aS'/usr/share/fonts/X11/Type1/qcsr.afm'
p976
aS'/usr/share/fonts/type1/gsfonts/a010013l.afm'
p977
aS'/usr/share/fonts/X11/Type1/c0583bt_.afm'
p978
aS'/usr/share/fonts/X11/Type1/qagri.afm'
p979
aS'/usr/share/fonts/X11/Type1/qbkbi.afm'
p980
aS'/usr/share/fonts/X11/Type1/lmcsc10.afm'
p981
aS'/usr/share/fonts/X11/Type1/qcrbi.afm'
p982
aS'/usr/share/fonts/X11/Type1/qcrb.afm'
p983
aS'/usr/share/fonts/X11/Type1/lmssqbo8.afm'
p984
aS'/usr/share/fonts/type1/gsfonts/p052003l.afm'
p985
aS'/usr/share/fonts/type1/gsfonts/b018032l.afm'
p986
aS'/usr/share/fonts/X11/Type1/lmvtk10.afm'
p987
aS'/usr/share/fonts/type1/gsfonts/n021023l.afm'
p988
aS'/usr/share/fonts/X11/Type1/qhvri.afm'
p989
aS'/usr/share/fonts/X11/Type1/lmtlo10.afm'
p990
aS'/usr/share/fonts/X11/Type1/lmvtl10.afm'
p991
aS'/usr/share/fonts/type1/gsfonts/n021003l.afm'
p992
aS'/usr/share/fonts/X11/Type1/lmsso10.afm'
p993
aS'/usr/share/fonts/type1/gsfonts/s050000l.afm'
p994
aS'/usr/share/fonts/type1/gsfonts/n021004l.afm'
p995
aS'/usr/share/fonts/type1/gsfonts/p052024l.afm'
p996
aS'/usr/share/fonts/X11/Type1/qtmri.afm'
p997
aS'/usr/share/fonts/X11/Type1/qbkb.afm'
p998
aS'/usr/share/fonts/X11/Type1/lmb10.afm'
p999
aS'/usr/share/fonts/type1/gsfonts/n019063l.afm'
p1000
aS'/usr/share/fonts/X11/Type1/qtmr.afm'
p1001
aS'/usr/share/fonts/X11/Type1/lmtcsc10.afm'
p1002
aS'/usr/share/fonts/X11/Type1/lmcsco10.afm'
p1003
aS'/usr/share/fonts/X11/Type1/qagb.afm'
p1004
aS'/usr/share/fonts/X11/Type1/c0633bt_.afm'
p1005
aS'/usr/share/fonts/X11/Type1/lmvtto10.afm'
p1006
aS'/usr/share/fonts/X11/Type1/lmss10.afm'
p1007
aS'/usr/share/fonts/X11/Type1/lmvtt10.afm'
p1008
aS'/usr/share/fonts/type1/gsfonts/b018035l.afm'
p1009
aS'/usr/share/fonts/X11/Type1/lmduno10.afm'
p1010
aS'/usr/share/fonts/X11/Type1/qtmbi.afm'
p1011
aS'/usr/share/fonts/X11/Type1/qcsbi.afm'
p1012
aS'/usr/share/fonts/type1/gsfonts/n022004l.afm'
p1013
aS'/usr/share/fonts/type1/mathml/Symbol.afm'
p1014
aS'/usr/share/fonts/X11/Type1/qhvcbi.afm'
p1015
aS'/usr/share/fonts/X11/Type1/lmri10.afm'
p1016
aS'/usr/share/fonts/X11/Type1/Symbol.afm'
p1017
aS'/usr/share/fonts/X11/Type1/lmr10.afm'
p1018
aS'/usr/share/fonts/type1/gsfonts/a010015l.afm'
p1019
aS'/usr/share/fonts/X11/Type1/lmtl10.afm'
p1020
aS'/usr/share/fonts/X11/Type1/qplri.afm'
p1021
aS'/usr/share/fonts/X11/Type1/qagbi.afm'
p1022
aS'/usr/share/fonts/X11/Type1/qhvcr.afm'
p1023
aS'/usr/share/fonts/X11/Type1/lmtlco10.afm'
p1024
aS'/usr/share/fonts/type1/gsfonts/c059016l.afm'
p1025
aS'/usr/share/fonts/X11/Type1/qplb.afm'
p1026
aS'/usr/share/fonts/X11/Type1/c0648bt_.afm'
p1027
aS'/usr/share/fonts/type1/gsfonts/n022003l.afm'
p1028
aS'/usr/share/fonts/type1/gsfonts/a010033l.afm'
p1029
aS'/usr/share/fonts/X11/Type1/lmvtko10.afm'
p1030
aS'/usr/share/fonts/type1/gsfonts/c059033l.afm'
p1031
aS'/usr/share/fonts/X11/Type1/qcrri.afm'
p1032
aS'/usr/share/fonts/type1/gsfonts/n019064l.afm'
p1033
aS'/usr/share/fonts/X11/Type1/c0582bt_.afm'
p1034
aS'/usr/share/fonts/X11/Type1/lmssq8.afm'
p1035
aS'/usr/share/fonts/X11/Type1/lmssbo10.afm'
p1036
aS'/usr/share/fonts/X11/Type1/qagr.afm'
p1037
aS'/usr/share/fonts/type1/gsfonts/n019043l.afm'
p1038
aS'/usr/share/fonts/type1/gsfonts/n019023l.afm'
p1039
aS'/usr/share/fonts/X11/Type1/lmtko10.afm'
p1040
aS'/usr/share/fonts/X11/Type1/c0611bt_.afm'
p1041
aS'/usr/share/fonts/X11/Type1/lmbo10.afm'
p1042
aS'/usr/share/fonts/type1/gsfonts/p052023l.afm'
p1043
aS'/usr/share/fonts/X11/Type1/qplbi.afm'
p1044
aS'/usr/share/fonts/X11/Type1/lmssdc10.afm'
p1045
aS'/usr/share/fonts/X11/Type1/lmtto10.afm'
p1046
aS'/usr/share/fonts/type1/gsfonts/n022023l.afm'
p1047
aS'/usr/share/fonts/X11/Type1/qhvcri.afm'
p1048
aS'/usr/share/fonts/type1/gsfonts/a010035l.afm'
p1049
aS'/usr/share/fonts/X11/Type1/qbkri.afm'
p1050
aS'/usr/share/fonts/X11/Type1/c0632bt_.afm'
p1051
aS'/usr/share/fonts/X11/Type1/lmu10.afm'
p1052
asS'afmlist'
p1053
(lp1054
g7
(g8
g9
NtRp1055
(dp1056
g12
g13
sg14
S'Helvetica'
p1057
sg16
I200
sg17
g13
sg18
g13
sg19
g890
sg21
g22
sbag7
(g8
g9
NtRp1058
(dp1059
g12
g29
sg14
S'ITC Zapf Chancery'
p1060
sg16
I500
sg17
g13
sg18
g13
sg19
g891
sg21
g22
sbag7
(g8
g9
NtRp1061
(dp1062
g12
g13
sg14
S'Palatino'
p1063
sg16
I700
sg17
g13
sg18
g13
sg19
g892
sg21
g22
sbag7
(g8
g9
NtRp1064
(dp1065
g12
g29
sg14
S'Utopia'
p1066
sg16
I700
sg17
g13
sg18
g13
sg19
g893
sg21
g22
sbag7
(g8
g9
NtRp1067
(dp1068
g12
g29
sg14
S'Helvetica'
p1069
sg16
I500
sg17
g13
sg18
g13
sg19
g894
sg21
g22
sbag7
(g8
g9
NtRp1070
(dp1071
g12
g13
sg14
S'ITC Bookman'
p1072
sg16
I600
sg17
g13
sg18
g13
sg19
g895
sg21
g22
sbag7
(g8
g9
NtRp1073
(dp1074
g12
g29
sg14
S'Courier'
p1075
sg16
I700
sg17
g13
sg18
g13
sg19
g896
sg21
g22
sbag7
(g8
g9
NtRp1076
(dp1077
g12
g13
sg14
S'Utopia'
p1078
sg16
I400
sg17
g13
sg18
g13
sg19
g897
sg21
g22
sbag7
(g8
g9
NtRp1079
(dp1080
g12
g29
sg14
S'ITC Avant Garde Gothic'
p1081
sg16
I600
sg17
g13
sg18
g13
sg19
g898
sg21
g22
sbag7
(g8
g9
NtRp1082
(dp1083
g12
g13
sg14
S'Courier'
p1084
sg16
I500
sg17
g13
sg18
g13
sg19
g899
sg21
g22
sbag7
(g8
g9
NtRp1085
(dp1086
g12
g29
sg14
S'New Century Schoolbook'
p1087
sg16
I500
sg17
g13
sg18
g13
sg19
g900
sg21
g22
sbag7
(g8
g9
NtRp1088
(dp1089
g12
g13
sg14
S'New Century Schoolbook'
p1090
sg16
I700
sg17
g13
sg18
g13
sg19
g901
sg21
g22
sbag7
(g8
g9
NtRp1091
(dp1092
g12
g29
sg14
S'Courier'
p1093
sg16
I500
sg17
g13
sg18
g13
sg19
g902
sg21
g22
sbag7
(g8
g9
NtRp1094
(dp1095
g12
g13
sg14
S'Helvetica'
p1096
sg16
I500
sg17
g13
sg18
g13
sg19
g903
sg21
g22
sbag7
(g8
g9
NtRp1097
(dp1098
g12
g13
sg14
S'Computer Modern'
p1099
sg16
I500
sg17
g13
sg18
g13
sg19
g904
sg21
g22
sbag7
(g8
g9
NtRp1100
(dp1101
g12
g13
sg14
S'Helvetica'
p1102
sg16
I500
sg17
g13
sg18
g13
sg19
g905
sg21
g22
sbag7
(g8
g9
NtRp1103
(dp1104
g12
g29
sg14
S'Helvetica'
p1105
sg16
I500
sg17
g13
sg18
g13
sg19
g906
sg21
g22
sbag7
(g8
g9
NtRp1106
(dp1107
g12
g13
sg14
S'Times'
p1108
sg16
I500
sg17
g13
sg18
g13
sg19
g907
sg21
g22
sbag7
(g8
g9
NtRp1109
(dp1110
g12
g29
sg14
S'Palatino'
p1111
sg16
I700
sg17
g13
sg18
g13
sg19
g908
sg21
g22
sbag7
(g8
g9
NtRp1112
(dp1113
g12
g29
sg14
S'Computer Modern'
p1114
sg16
I500
sg17
g13
sg18
g13
sg19
g909
sg21
g22
sbag7
(g8
g9
NtRp1115
(dp1116
g12
g13
sg14
S'ITC Avant Garde Gothic'
p1117
sg16
I400
sg17
g13
sg18
g13
sg19
g910
sg21
g22
sbag7
(g8
g9
NtRp1118
(dp1119
g12
g13
sg14
S'Utopia'
p1120
sg16
I700
sg17
g13
sg18
g13
sg19
g911
sg21
g22
sbag7
(g8
g9
NtRp1121
(dp1122
g12
g29
sg14
S'Computer Modern'
p1123
sg16
I500
sg17
g13
sg18
g13
sg19
g912
sg21
g22
sbag7
(g8
g9
NtRp1124
(dp1125
g12
g29
sg14
S'ITC Avant Garde Gothic'
p1126
sg16
I400
sg17
g13
sg18
g13
sg19
g913
sg21
g22
sbag7
(g8
g9
NtRp1127
(dp1128
g12
g29
sg14
S'ITC Bookman'
p1129
sg16
I600
sg17
g13
sg18
g13
sg19
g914
sg21
g22
sbag7
(g8
g9
NtRp1130
(dp1131
g12
g29
sg14
S'Helvetica'
p1132
sg16
I700
sg17
g13
sg18
g13
sg19
g915
sg21
g22
sbag7
(g8
g9
NtRp1133
(dp1134
g12
g13
sg14
S'Computer Modern'
p1135
sg16
I500
sg17
g13
sg18
g13
sg19
g916
sg21
g22
sbag7
(g8
g9
NtRp1136
(dp1137
g12
g13
sg14
S'Times'
p1138
sg16
I700
sg17
g13
sg18
g13
sg19
g917
sg21
g22
sbag7
(g8
g9
NtRp1139
(dp1140
g12
g29
sg14
S'Helvetica'
p1141
sg16
I200
sg17
g13
sg18
g13
sg19
g918
sg21
g22
sbag7
(g8
g9
NtRp1142
(dp1143
g12
g13
sg14
S'Helvetica'
p1144
sg16
I700
sg17
g13
sg18
g13
sg19
g919
sg21
g22
sbag7
(g8
g9
NtRp1145
(dp1146
g12
g13
sg14
S'ITC Zapf Dingbats'
p1147
sg16
I500
sg17
g13
sg18
g13
sg19
g920
sg21
g22
sbag7
(g8
g9
NtRp1148
(dp1149
g12
g29
sg14
S'Times'
p1150
sg16
I500
sg17
g13
sg18
g13
sg19
g921
sg21
g22
sbag7
(g8
g9
NtRp1151
(dp1152
g12
g13
sg14
S'Palatino'
p1153
sg16
I500
sg17
g13
sg18
g13
sg19
g922
sg21
g22
sbag7
(g8
g9
NtRp1154
(dp1155
g12
g13
sg14
S'ITC Bookman'
p1156
sg16
I200
sg17
g13
sg18
g13
sg19
g923
sg21
g22
sbag7
(g8
g9
NtRp1157
(dp1158
g12
g29
sg14
S'New Century Schoolbook'
p1159
sg16
I700
sg17
g13
sg18
g13
sg19
g924
sg21
g22
sbag7
(g8
g9
NtRp1160
(dp1161
g12
g13
sg14
S'Symbol'
p1162
sg16
I500
sg17
g13
sg18
g13
sg19
g925
sg21
g22
sbag7
(g8
g9
NtRp1163
(dp1164
g12
g29
sg14
S'Palatino'
p1165
sg16
I500
sg17
g13
sg18
g13
sg19
g926
sg21
g22
sbag7
(g8
g9
NtRp1166
(dp1167
g12
g29
sg14
S'Times'
p1168
sg16
I700
sg17
g13
sg18
g13
sg19
g927
sg21
g22
sbag7
(g8
g9
NtRp1169
(dp1170
g12
g29
sg14
S'ITC Bookman'
p1171
sg16
I200
sg17
g13
sg18
g13
sg19
g928
sg21
g22
sbag7
(g8
g9
NtRp1172
(dp1173
g12
g13
sg14
S'Courier'
p1174
sg16
I700
sg17
g13
sg18
g13
sg19
g929
sg21
g22
sbag7
(g8
g9
NtRp1175
(dp1176
g12
g13
sg14
S'ITC Avant Garde Gothic'
p1177
sg16
I600
sg17
g13
sg18
g13
sg19
g930
sg21
g22
sbag7
(g8
g9
NtRp1178
(dp1179
g12
g13
sg14
S'New Century Schoolbook'
p1180
sg16
I500
sg17
g13
sg18
g13
sg19
g931
sg21
g22
sbag7
(g8
g9
NtRp1181
(dp1182
g12
g29
sg14
S'Helvetica'
p1183
sg16
I700
sg17
g13
sg18
g13
sg19
g932
sg21
g22
sbag7
(g8
g9
NtRp1184
(dp1185
g12
g13
sg14
S'Computer Modern'
p1186
sg16
I500
sg17
g13
sg18
g13
sg19
g933
sg21
g22
sbag7
(g8
g9
NtRp1187
(dp1188
g12
g29
sg14
S'Utopia'
p1189
sg16
I400
sg17
g13
sg18
g13
sg19
g934
sg21
g22
sbag7
(g8
g9
NtRp1190
(dp1191
g12
g13
sg14
S'Helvetica'
p1192
sg16
I700
sg17
g13
sg18
g13
sg19
g935
sg21
g22
sbag7
(g8
g9
NtRp1193
(dp1194
g12
g13
sg14
S'LMMono10'
p1195
sg16
I400
sg17
g13
sg18
g13
sg19
g936
sg21
g22
sbag7
(g8
g9
NtRp1196
(dp1197
g12
g13
sg14
S'URW Palladio L'
p1198
sg16
I700
sg17
g13
sg18
g13
sg19
g937
sg21
g22
sbag7
(g8
g9
NtRp1199
(dp1200
g12
g29
sg14
S'LMSansQuot8'
p1201
sg16
I400
sg17
g13
sg18
g13
sg19
g938
sg21
g22
sbag7
(g8
g9
NtRp1202
(dp1203
g12
g13
sg14
S'URW Bookman L'
p1204
sg16
I700
sg17
g13
sg18
g13
sg19
g939
sg21
g22
sbag7
(g8
g9
NtRp1205
(dp1206
g12
g29
sg14
S'LMRomanSlant10'
p1207
sg16
I700
sg17
g13
sg18
g13
sg19
g940
sg21
g22
sbag7
(g8
g9
NtRp1208
(dp1209
g12
g29
sg14
S'Nimbus Mono L'
p1210
sg16
I700
sg17
g13
sg18
g13
sg19
g941
sg21
g22
sbag7
(g8
g9
NtRp1211
(dp1212
g12
g13
sg14
S'LMMonoLtCond10'
p1213
sg16
I200
sg17
g13
sg18
g13
sg19
g942
sg21
g22
sbag7
(g8
g9
NtRp1214
(dp1215
g12
g13
sg14
S'Nimbus Sans L'
p1216
sg16
I700
sg17
g13
sg18
g13
sg19
g943
sg21
g22
sbag7
(g8
g9
NtRp1217
(dp1218
g12
g13
sg14
S'LMMonoLt10'
p1219
sg16
I700
sg17
g13
sg18
g13
sg19
g944
sg21
g22
sbag7
(g8
g9
NtRp1220
(dp1221
g12
g13
sg14
S'TeXGyreBonum'
p1222
sg16
I400
sg17
g13
sg18
g13
sg19
g945
sg21
g22
sbag7
(g8
g9
NtRp1223
(dp1224
g12
g13
sg14
S'LMRomanDunh10'
p1225
sg16
I400
sg17
g13
sg18
g13
sg19
g946
sg21
g22
sbag7
(g8
g9
NtRp1226
(dp1227
g12
g13
sg14
S'Nimbus Sans L'
p1228
sg16
I400
sg17
g13
sg18
g13
sg19
g947
sg21
g22
sbag7
(g8
g9
NtRp1229
(dp1230
g12
g29
sg14
S'TeXGyreSchola'
p1231
sg16
I400
sg17
g13
sg18
g13
sg19
g948
sg21
g22
sbag7
(g8
g9
NtRp1232
(dp1233
g12
g13
sg14
S'TeXGyreCursor'
p1234
sg16
I400
sg17
g13
sg18
g13
sg19
g949
sg21
g22
sbag7
(g8
g9
NtRp1235
(dp1236
g12
g29
sg14
S'Century Schoolbook L'
p1237
sg16
I700
sg17
g13
sg18
g13
sg19
g950
sg21
g22
sbag7
(g8
g9
NtRp1238
(dp1239
g12
g13
sg14
S'Century Schoolbook L'
p1240
sg16
I500
sg17
g13
sg18
g13
sg19
g951
sg21
g22
sbag7
(g8
g9
NtRp1241
(dp1242
g12
g13
sg14
S'TeXGyreTermes'
p1243
sg16
I700
sg17
g13
sg18
g13
sg19
g952
sg21
g22
sbag7
(g8
g9
NtRp1244
(dp1245
g12
g13
sg14
S'TeXGyreHerosCondensed'
p1246
sg16
I700
sg17
g13
sg18
g13
sg19
g953
sg21
g22
sbag7
(g8
g9
NtRp1247
(dp1248
g12
g13
sg14
S'LMSans10'
p1249
sg16
I700
sg17
g13
sg18
g13
sg19
g954
sg21
g22
sbag7
(g8
g9
NtRp1250
(dp1251
g12
g29
sg14
S'LMMonoPropLt10'
p1252
sg16
I200
sg17
g13
sg18
g13
sg19
g955
sg21
g22
sbag7
(g8
g9
NtRp1253
(dp1254
g12
g29
sg14
S'LMMonoCaps10'
p1255
sg16
I400
sg17
g13
sg18
g13
sg19
g956
sg21
g22
sbag7
(g8
g9
NtRp1256
(dp1257
g12
g29
sg14
S'LMMono10'
p1258
sg16
I400
sg17
g13
sg18
g13
sg19
g957
sg21
g22
sbag7
(g8
g9
NtRp1259
(dp1260
g12
g13
sg14
S'Courier 10 Pitch'
p1261
sg16
I400
sg17
g13
sg18
g13
sg19
g958
sg21
g22
sbag7
(g8
g9
NtRp1262
(dp1263
g12
g29
sg14
S'Nimbus Roman No9 L'
p1264
sg16
I700
sg17
g13
sg18
g13
sg19
g959
sg21
g22
sbag7
(g8
g9
NtRp1265
(dp1266
g12
g29
sg14
S'Nimbus Sans L'
p1267
sg16
I700
sg17
g13
sg18
g13
sg19
g960
sg21
g22
sbag7
(g8
g9
NtRp1268
(dp1269
g12
g29
sg14
S'TeXGyreHeros'
p1270
sg16
I700
sg17
g13
sg18
g13
sg19
g961
sg21
g22
sbag7
(g8
g9
NtRp1271
(dp1272
g12
g13
sg14
S'TeXGyreSchola'
p1273
sg16
I700
sg17
g13
sg18
g13
sg19
g962
sg21
g22
sbag7
(g8
g9
NtRp1274
(dp1275
g12
g13
sg14
S'LMRoman10'
p1276
sg16
I700
sg17
g13
sg18
g13
sg19
g963
sg21
g22
sbag7
(g8
g9
NtRp1277
(dp1278
g12
g13
sg14
S'Dingbats'
p1279
sg16
I400
sg17
g13
sg18
g13
sg19
g964
sg21
g22
sbag7
(g8
g9
NtRp1280
(dp1281
g12
g29
sg14
S'LMSansDemiCond10'
p1282
sg16
I600
sg17
g13
sg18
g13
sg19
g965
sg21
g22
sbag7
(g8
g9
NtRp1283
(dp1284
g12
g13
sg14
S'LMSansQuot8'
p1285
sg16
I700
sg17
g13
sg18
g13
sg19
g966
sg21
g22
sbag7
(g8
g9
NtRp1286
(dp1287
g12
g13
sg14
S'TeXGyreHeros'
p1288
sg16
I700
sg17
g13
sg18
g13
sg19
g967
sg21
g22
sbag7
(g8
g9
NtRp1289
(dp1290
g12
g29
sg14
S'Bitstream Charter'
p1291
sg16
I400
sg17
g13
sg18
g13
sg19
g968
sg21
g22
sbag7
(g8
g9
NtRp1292
(dp1293
g12
g13
sg14
S'Nimbus Sans L'
p1294
sg16
I700
sg17
g13
sg18
g13
sg19
g969
sg21
g22
sbag7
(g8
g9
NtRp1295
(dp1296
g12
g29
sg14
S'URW Chancery L'
p1297
sg16
I500
sg17
g13
sg18
g13
sg19
g970
sg21
g22
sbag7
(g8
g9
NtRp1298
(dp1299
g12
g13
sg14
S'TeXGyreHeros'
p1300
sg16
I400
sg17
g13
sg18
g13
sg19
g971
sg21
g22
sbag7
(g8
g9
NtRp1301
(dp1302
g12
g29
sg14
S'LMRoman10'
p1303
sg16
I700
sg17
g13
sg18
g13
sg19
g972
sg21
g22
sbag7
(g8
g9
NtRp1304
(dp1305
g12
g13
sg14
S'URW Bookman L'
p1306
sg16
I400
sg17
g13
sg18
g13
sg19
g973
sg21
g22
sbag7
(g8
g9
NtRp1307
(dp1308
g12
g29
sg14
S'LMRomanSlant10'
p1309
sg16
I400
sg17
g13
sg18
g13
sg19
g974
sg21
g22
sbag7
(g8
g9
NtRp1310
(dp1311
g12
g13
sg14
S'TeXGyrePagella'
p1312
sg16
I400
sg17
g13
sg18
g13
sg19
g975
sg21
g22
sbag7
(g8
g9
NtRp1313
(dp1314
g12
g13
sg14
S'TeXGyreSchola'
p1315
sg16
I400
sg17
g13
sg18
g13
sg19
g976
sg21
g22
sbag7
(g8
g9
NtRp1316
(dp1317
g12
g13
sg14
S'URW Gothic L'
p1318
sg16
I400
sg17
g13
sg18
g13
sg19
g977
sg21
g22
sbag7
(g8
g9
NtRp1319
(dp1320
g12
g13
sg14
S'Courier 10 Pitch'
p1321
sg16
I700
sg17
g13
sg18
g13
sg19
g978
sg21
g22
sbag7
(g8
g9
NtRp1322
(dp1323
g12
g29
sg14
S'TeXGyreAdventor'
p1324
sg16
I400
sg17
g13
sg18
g13
sg19
g979
sg21
g22
sbag7
(g8
g9
NtRp1325
(dp1326
g12
g29
sg14
S'TeXGyreBonum'
p1327
sg16
I700
sg17
g13
sg18
g13
sg19
g980
sg21
g22
sbag7
(g8
g9
NtRp1328
(dp1329
g12
g13
sg14
S'LMRomanCaps10'
p1330
sg16
I400
sg17
g13
sg18
g13
sg19
g981
sg21
g22
sbag7
(g8
g9
NtRp1331
(dp1332
g12
g29
sg14
S'TeXGyreCursor'
p1333
sg16
I700
sg17
g13
sg18
g13
sg19
g982
sg21
g22
sbag7
(g8
g9
NtRp1334
(dp1335
g12
g13
sg14
S'TeXGyreCursor'
p1336
sg16
I700
sg17
g13
sg18
g13
sg19
g983
sg21
g22
sbag7
(g8
g9
NtRp1337
(dp1338
g12
g29
sg14
S'LMSansQuot8'
p1339
sg16
I700
sg17
g13
sg18
g13
sg19
g984
sg21
g22
sbag7
(g8
g9
NtRp1340
(dp1341
g12
g13
sg14
S'URW Palladio L'
p1342
sg16
I500
sg17
g13
sg18
g13
sg19
g985
sg21
g22
sbag7
(g8
g9
NtRp1343
(dp1344
g12
g29
sg14
S'URW Bookman L'
p1345
sg16
I400
sg17
g13
sg18
g13
sg19
g986
sg21
g22
sbag7
(g8
g9
NtRp1346
(dp1347
g12
g13
sg14
S'LMMonoPropLt10'
p1348
sg16
I700
sg17
g13
sg18
g13
sg19
g987
sg21
g22
sbag7
(g8
g9
NtRp1349
(dp1350
g12
g29
sg14
S'Nimbus Roman No9 L'
p1351
sg16
I400
sg17
g13
sg18
g13
sg19
g988
sg21
g22
sbag7
(g8
g9
NtRp1352
(dp1353
g12
g29
sg14
S'TeXGyreHeros'
p1354
sg16
I400
sg17
g13
sg18
g13
sg19
g989
sg21
g22
sbag7
(g8
g9
NtRp1355
(dp1356
g12
g29
sg14
S'LMMonoLt10'
p1357
sg16
I200
sg17
g13
sg18
g13
sg19
g990
sg21
g22
sbag7
(g8
g9
NtRp1358
(dp1359
g12
g13
sg14
S'LMMonoPropLt10'
p1360
sg16
I200
sg17
g13
sg18
g13
sg19
g991
sg21
g22
sbag7
(g8
g9
NtRp1361
(dp1362
g12
g13
sg14
S'Nimbus Roman No9 L'
p1363
sg16
I400
sg17
g13
sg18
g13
sg19
g992
sg21
g22
sbag7
(g8
g9
NtRp1364
(dp1365
g12
g29
sg14
S'LMSans10'
p1366
sg16
I400
sg17
g13
sg18
g13
sg19
g993
sg21
g22
sbag7
(g8
g9
NtRp1367
(dp1368
g12
g13
sg14
S'Standard Symbols L'
p1369
sg16
I400
sg17
g13
sg18
g13
sg19
g994
sg21
g22
sbag7
(g8
g9
NtRp1370
(dp1371
g12
g13
sg14
S'Nimbus Roman No9 L'
p1372
sg16
I700
sg17
g13
sg18
g13
sg19
g995
sg21
g22
sbag7
(g8
g9
NtRp1373
(dp1374
g12
g29
sg14
S'URW Palladio L'
p1375
sg16
I700
sg17
g13
sg18
g13
sg19
g996
sg21
g22
sbag7
(g8
g9
NtRp1376
(dp1377
g12
g29
sg14
S'TeXGyreTermes'
p1378
sg16
I400
sg17
g13
sg18
g13
sg19
g997
sg21
g22
sbag7
(g8
g9
NtRp1379
(dp1380
g12
g13
sg14
S'TeXGyreBonum'
p1381
sg16
I700
sg17
g13
sg18
g13
sg19
g998
sg21
g22
sbag7
(g8
g9
NtRp1382
(dp1383
g12
g13
sg14
S'LMRomanDemi10'
p1384
sg16
I600
sg17
g13
sg18
g13
sg19
g999
sg21
g22
sbag7
(g8
g9
NtRp1385
(dp1386
g12
g29
sg14
S'Nimbus Sans L'
p1387
sg16
I400
sg17
g13
sg18
g13
sg19
g1000
sg21
g22
sbag7
(g8
g9
NtRp1388
(dp1389
g12
g13
sg14
S'TeXGyreTermes'
p1390
sg16
I400
sg17
g13
sg18
g13
sg19
g1001
sg21
g22
sbag7
(g8
g9
NtRp1391
(dp1392
g12
g13
sg14
S'LMMonoCaps10'
p1393
sg16
I400
sg17
g13
sg18
g13
sg19
g1002
sg21
g22
sbag7
(g8
g9
NtRp1394
(dp1395
g12
g29
sg14
S'LMRomanCaps10'
p1396
sg16
I400
sg17
g13
sg18
g13
sg19
g1003
sg21
g22
sbag7
(g8
g9
NtRp1397
(dp1398
g12
g13
sg14
S'TeXGyreAdventor'
p1399
sg16
I700
sg17
g13
sg18
g13
sg19
g1004
sg21
g22
sbag7
(g8
g9
NtRp1400
(dp1401
g12
g29
sg14
S'Bitstream Charter'
p1402
sg16
I700
sg17
g13
sg18
g13
sg19
g1005
sg21
g22
sbag7
(g8
g9
NtRp1403
(dp1404
g12
g29
sg14
S'LMMonoProp10'
p1405
sg16
I400
sg17
g13
sg18
g13
sg19
g1006
sg21
g22
sbag7
(g8
g9
NtRp1406
(dp1407
g12
g13
sg14
S'LMSans10'
p1408
sg16
I400
sg17
g13
sg18
g13
sg19
g1007
sg21
g22
sbag7
(g8
g9
NtRp1409
(dp1410
g12
g13
sg14
S'LMMonoProp10'
p1411
sg16
I400
sg17
g13
sg18
g13
sg19
g1008
sg21
g22
sbag7
(g8
g9
NtRp1412
(dp1413
g12
g29
sg14
S'URW Bookman L'
p1414
sg16
I700
sg17
g13
sg18
g13
sg19
g1009
sg21
g22
sbag7
(g8
g9
NtRp1415
(dp1416
g12
g29
sg14
S'LMRomanDunh10'
p1417
sg16
I400
sg17
g13
sg18
g13
sg19
g1010
sg21
g22
sbag7
(g8
g9
NtRp1418
(dp1419
g12
g29
sg14
S'TeXGyreTermes'
p1420
sg16
I700
sg17
g13
sg18
g13
sg19
g1011
sg21
g22
sbag7
(g8
g9
NtRp1421
(dp1422
g12
g29
sg14
S'TeXGyreSchola'
p1423
sg16
I400
sg17
g13
sg18
g13
sg19
g1012
sg21
g22
sbag7
(g8
g9
NtRp1424
(dp1425
g12
g13
sg14
S'Nimbus Mono L'
p1426
sg16
I700
sg17
g13
sg18
g13
sg19
g1013
sg21
g22
sbag7
(g8
g9
NtRp1427
(dp1428
g12
g13
sg14
S'Symbol'
p1429
sg16
I400
sg17
g13
sg18
g13
sg19
g1014
sg21
g22
sbag7
(g8
g9
NtRp1430
(dp1431
g12
g29
sg14
S'TeXGyreHerosCondensed'
p1432
sg16
I700
sg17
g13
sg18
g13
sg19
g1015
sg21
g22
sbag7
(g8
g9
NtRp1433
(dp1434
g12
g29
sg14
S'LMRoman10'
p1435
sg16
I400
sg17
g13
sg18
g13
sg19
g1016
sg21
g22
sbag7
(g8
g9
NtRp1436
(dp1437
g12
g13
sg14
S'LMRoman10'
p1438
sg16
I400
sg17
g13
sg18
g13
sg19
g1018
sg21
g22
sbag7
(g8
g9
NtRp1439
(dp1440
g12
g13
sg14
S'URW Gothic L'
p1441
sg16
I600
sg17
g13
sg18
g13
sg19
g1019
sg21
g22
sbag7
(g8
g9
NtRp1442
(dp1443
g12
g13
sg14
S'LMMonoLt10'
p1444
sg16
I200
sg17
g13
sg18
g13
sg19
g1020
sg21
g22
sbag7
(g8
g9
NtRp1445
(dp1446
g12
g29
sg14
S'TeXGyrePagella'
p1447
sg16
I400
sg17
g13
sg18
g13
sg19
g1021
sg21
g22
sbag7
(g8
g9
NtRp1448
(dp1449
g12
g29
sg14
S'TeXGyreAdventor'
p1450
sg16
I700
sg17
g13
sg18
g13
sg19
g1022
sg21
g22
sbag7
(g8
g9
NtRp1451
(dp1452
g12
g13
sg14
S'TeXGyreHerosCondensed'
p1453
sg16
I400
sg17
g13
sg18
g13
sg19
g1023
sg21
g22
sbag7
(g8
g9
NtRp1454
(dp1455
g12
g29
sg14
S'LMMonoLtCond10'
p1456
sg16
I200
sg17
g13
sg18
g13
sg19
g1024
sg21
g22
sbag7
(g8
g9
NtRp1457
(dp1458
g12
g13
sg14
S'Century Schoolbook L'
p1459
sg16
I700
sg17
g13
sg18
g13
sg19
g1025
sg21
g22
sbag7
(g8
g9
NtRp1460
(dp1461
g12
g13
sg14
S'TeXGyrePagella'
p1462
sg16
I700
sg17
g13
sg18
g13
sg19
g1026
sg21
g22
sbag7
(g8
g9
NtRp1463
(dp1464
g12
g13
sg14
S'Bitstream Charter'
p1465
sg16
I400
sg17
g13
sg18
g13
sg19
g1027
sg21
g22
sbag7
(g8
g9
NtRp1466
(dp1467
g12
g13
sg14
S'Nimbus Mono L'
p1468
sg16
I400
sg17
g13
sg18
g13
sg19
g1028
sg21
g22
sbag7
(g8
g9
NtRp1469
(dp1470
g12
g29
sg14
S'URW Gothic L'
p1471
sg16
I400
sg17
g13
sg18
g13
sg19
g1029
sg21
g22
sbag7
(g8
g9
NtRp1472
(dp1473
g12
g29
sg14
S'LMMonoPropLt10'
p1474
sg16
I700
sg17
g13
sg18
g13
sg19
g1030
sg21
g22
sbag7
(g8
g9
NtRp1475
(dp1476
g12
g29
sg14
S'Century Schoolbook L'
p1477
sg16
I400
sg17
g13
sg18
g13
sg19
g1031
sg21
g22
sbag7
(g8
g9
NtRp1478
(dp1479
g12
g29
sg14
S'TeXGyreCursor'
p1480
sg16
I400
sg17
g13
sg18
g13
sg19
g1032
sg21
g22
sbag7
(g8
g9
NtRp1481
(dp1482
g12
g29
sg14
S'Nimbus Sans L'
p1483
sg16
I700
sg17
g13
sg18
g13
sg19
g1033
sg21
g22
sbag7
(g8
g9
NtRp1484
(dp1485
g12
g29
sg14
S'Courier 10 Pitch'
p1486
sg16
I400
sg17
g13
sg18
g13
sg19
g1034
sg21
g22
sbag7
(g8
g9
NtRp1487
(dp1488
g12
g13
sg14
S'LMSansQuot8'
p1489
sg16
I400
sg17
g13
sg18
g13
sg19
g1035
sg21
g22
sbag7
(g8
g9
NtRp1490
(dp1491
g12
g29
sg14
S'LMSans10'
p1492
sg16
I700
sg17
g13
sg18
g13
sg19
g1036
sg21
g22
sbag7
(g8
g9
NtRp1493
(dp1494
g12
g13
sg14
S'TeXGyreAdventor'
p1495
sg16
I400
sg17
g13
sg18
g13
sg19
g1037
sg21
g22
sbag7
(g8
g9
NtRp1496
(dp1497
g12
g13
sg14
S'Nimbus Sans L'
p1498
sg16
I400
sg17
g13
sg18
g13
sg19
g1038
sg21
g22
sbag7
(g8
g9
NtRp1499
(dp1500
g12
g29
sg14
S'Nimbus Sans L'
p1501
sg16
I400
sg17
g13
sg18
g13
sg19
g1039
sg21
g22
sbag7
(g8
g9
NtRp1502
(dp1503
g12
g29
sg14
S'LMMonoLt10'
p1504
sg16
I700
sg17
g13
sg18
g13
sg19
g1040
sg21
g22
sbag7
(g8
g9
NtRp1505
(dp1506
g12
g29
sg14
S'Courier 10 Pitch'
p1507
sg16
I700
sg17
g13
sg18
g13
sg19
g1041
sg21
g22
sbag7
(g8
g9
NtRp1508
(dp1509
g12
g29
sg14
S'LMRomanDemi10'
p1510
sg16
I600
sg17
g13
sg18
g13
sg19
g1042
sg21
g22
sbag7
(g8
g9
NtRp1511
(dp1512
g12
g29
sg14
S'URW Palladio L'
p1513
sg16
I400
sg17
g13
sg18
g13
sg19
g1043
sg21
g22
sbag7
(g8
g9
NtRp1514
(dp1515
g12
g29
sg14
S'TeXGyrePagella'
p1516
sg16
I700
sg17
g13
sg18
g13
sg19
g1044
sg21
g22
sbag7
(g8
g9
NtRp1517
(dp1518
g12
g13
sg14
S'LMSansDemiCond10'
p1519
sg16
I600
sg17
g13
sg18
g13
sg19
g1045
sg21
g22
sbag7
(g8
g9
NtRp1520
(dp1521
g12
g29
sg14
S'LMMonoSlant10'
p1522
sg16
I400
sg17
g13
sg18
g13
sg19
g1046
sg21
g22
sbag7
(g8
g9
NtRp1523
(dp1524
g12
g29
sg14
S'Nimbus Mono L'
p1525
sg16
I400
sg17
g13
sg18
g13
sg19
g1047
sg21
g22
sbag7
(g8
g9
NtRp1526
(dp1527
g12
g29
sg14
S'TeXGyreHerosCondensed'
p1528
sg16
I400
sg17
g13
sg18
g13
sg19
g1048
sg21
g22
sbag7
(g8
g9
NtRp1529
(dp1530
g12
g29
sg14
S'URW Gothic L'
p1531
sg16
I600
sg17
g13
sg18
g13
sg19
g1049
sg21
g22
sbag7
(g8
g9
NtRp1532
(dp1533
g12
g29
sg14
S'TeXGyreBonum'
p1534
sg16
I400
sg17
g13
sg18
g13
sg19
g1050
sg21
g22
sbag7
(g8
g9
NtRp1535
(dp1536
g12
g13
sg14
S'Bitstream Charter'
p1537
sg16
I700
sg17
g13
sg18
g13
sg19
g1051
sg21
g22
sbag7
(g8
g9
NtRp1538
(dp1539
g12
g13
sg14
S'LMRomanUnsl10'
p1540
sg16
I400
sg17
g13
sg18
g13
sg19
g1052
sg21
g22
sbasb.